###############################################################################
#                                                                             #
# IAR ELF Linker V6.40.4.54170/W32 for ARM              18/Jul/2013  22:27:59 #
# Copyright 2007-2012 IAR Systems AB.                                         #
#                                                                             #
#    Output file  =  F:\Firmware\emberZNet\firmware\EmberZNet\EM35x\app\senso #
#                    r\ewb-em357\build\sensor-cortexm3-iar-em357-em3xx-dev068 #
#                    0-debug\Exe\sensor.out                                   #
#    Map file     =  F:\Firmware\emberZNet\firmware\EmberZNet\EM35x\app\senso #
#                    r\ewb-em357\build\sensor-cortexm3-iar-em357-em3xx-dev068 #
#                    0-debug\Lst\sensor.map                                   #
#    Command line =  F:\Firmware\emberZNet\firmware\EmberZNet\EM35x\app\senso #
#                    r\ewb-em357\build\sensor-cortexm3-iar-em357-em3xx-dev068 #
#                    0-debug\Obj\Language.o F:\Firmware\emberZNet\firmware\Em #
#                    berZNet\EM35x\app\sensor\ewb-em357\build\sensor-cortexm3 #
#                    -iar-em357-em3xx-dev0680-debug\Obj\adc.o                 #
#                    F:\Firmware\emberZNet\firmware\EmberZNet\EM35x\app\senso #
#                    r\ewb-em357\build\sensor-cortexm3-iar-em357-em3xx-dev068 #
#                    0-debug\Obj\bootload-utils.o                             #
#                    F:\Firmware\emberZNet\firmware\EmberZNet\EM35x\app\senso #
#                    r\ewb-em357\build\sensor-cortexm3-iar-em357-em3xx-dev068 #
#                    0-debug\Obj\bootloader-interface-app.o                   #
#                    F:\Firmware\emberZNet\firmware\EmberZNet\EM35x\app\senso #
#                    r\ewb-em357\build\sensor-cortexm3-iar-em357-em3xx-dev068 #
#                    0-debug\Obj\bootloader-interface-standalone.o            #
#                    F:\Firmware\emberZNet\firmware\EmberZNet\EM35x\app\senso #
#                    r\ewb-em357\build\sensor-cortexm3-iar-em357-em3xx-dev068 #
#                    0-debug\Obj\bootloader-interface.o                       #
#                    F:\Firmware\emberZNet\firmware\EmberZNet\EM35x\app\senso #
#                    r\ewb-em357\build\sensor-cortexm3-iar-em357-em3xx-dev068 #
#                    0-debug\Obj\button.o F:\Firmware\emberZNet\firmware\Embe #
#                    rZNet\EM35x\app\sensor\ewb-em357\build\sensor-cortexm3-i #
#                    ar-em357-em3xx-dev0680-debug\Obj\buzzer.o                #
#                    F:\Firmware\emberZNet\firmware\EmberZNet\EM35x\app\senso #
#                    r\ewb-em357\build\sensor-cortexm3-iar-em357-em3xx-dev068 #
#                    0-debug\Obj\common.o F:\Firmware\emberZNet\firmware\Embe #
#                    rZNet\EM35x\app\sensor\ewb-em357\build\sensor-cortexm3-i #
#                    ar-em357-em3xx-dev0680-debug\Obj\crc.o                   #
#                    F:\Firmware\emberZNet\firmware\EmberZNet\EM35x\app\senso #
#                    r\ewb-em357\build\sensor-cortexm3-iar-em357-em3xx-dev068 #
#                    0-debug\Obj\cstartup-iar-common.o                        #
#                    F:\Firmware\emberZNet\firmware\EmberZNet\EM35x\app\senso #
#                    r\ewb-em357\build\sensor-cortexm3-iar-em357-em3xx-dev068 #
#                    0-debug\Obj\diagnostic.o F:\Firmware\emberZNet\firmware\ #
#                    EmberZNet\EM35x\app\sensor\ewb-em357\build\sensor-cortex #
#                    m3-iar-em357-em3xx-dev0680-debug\Obj\ember-configuration #
#                    .o F:\Firmware\emberZNet\firmware\EmberZNet\EM35x\app\se #
#                    nsor\ewb-em357\build\sensor-cortexm3-iar-em357-em3xx-dev #
#                    0680-debug\Obj\endian.o F:\Firmware\emberZNet\firmware\E #
#                    mberZNet\EM35x\app\sensor\ewb-em357\build\sensor-cortexm #
#                    3-iar-em357-em3xx-dev0680-debug\Obj\faults.o             #
#                    F:\Firmware\emberZNet\firmware\EmberZNet\EM35x\app\senso #
#                    r\ewb-em357\build\sensor-cortexm3-iar-em357-em3xx-dev068 #
#                    0-debug\Obj\form-and-join-node-adapter.o                 #
#                    F:\Firmware\emberZNet\firmware\EmberZNet\EM35x\app\senso #
#                    r\ewb-em357\build\sensor-cortexm3-iar-em357-em3xx-dev068 #
#                    0-debug\Obj\form-and-join-node-callbacks.o               #
#                    F:\Firmware\emberZNet\firmware\EmberZNet\EM35x\app\senso #
#                    r\ewb-em357\build\sensor-cortexm3-iar-em357-em3xx-dev068 #
#                    0-debug\Obj\form-and-join.o                              #
#                    F:\Firmware\emberZNet\firmware\EmberZNet\EM35x\app\senso #
#                    r\ewb-em357\build\sensor-cortexm3-iar-em357-em3xx-dev068 #
#                    0-debug\Obj\isr-stubs.o F:\Firmware\emberZNet\firmware\E #
#                    mberZNet\EM35x\app\sensor\ewb-em357\build\sensor-cortexm #
#                    3-iar-em357-em3xx-dev0680-debug\Obj\lcd.o                #
#                    F:\Firmware\emberZNet\firmware\EmberZNet\EM35x\app\senso #
#                    r\ewb-em357\build\sensor-cortexm3-iar-em357-em3xx-dev068 #
#                    0-debug\Obj\led.o F:\Firmware\emberZNet\firmware\EmberZN #
#                    et\EM35x\app\sensor\ewb-em357\build\sensor-cortexm3-iar- #
#                    em357-em3xx-dev0680-debug\Obj\mem-util.o                 #
#                    F:\Firmware\emberZNet\firmware\EmberZNet\EM35x\app\senso #
#                    r\ewb-em357\build\sensor-cortexm3-iar-em357-em3xx-dev068 #
#                    0-debug\Obj\mfg-token.o F:\Firmware\emberZNet\firmware\E #
#                    mberZNet\EM35x\app\sensor\ewb-em357\build\sensor-cortexm #
#                    3-iar-em357-em3xx-dev0680-debug\Obj\micro-common.o       #
#                    F:\Firmware\emberZNet\firmware\EmberZNet\EM35x\app\senso #
#                    r\ewb-em357\build\sensor-cortexm3-iar-em357-em3xx-dev068 #
#                    0-debug\Obj\micro.o F:\Firmware\emberZNet\firmware\Ember #
#                    ZNet\EM35x\app\sensor\ewb-em357\build\sensor-cortexm3-ia #
#                    r-em357-em3xx-dev0680-debug\Obj\mpu.o                    #
#                    F:\Firmware\emberZNet\firmware\EmberZNet\EM35x\app\senso #
#                    r\ewb-em357\build\sensor-cortexm3-iar-em357-em3xx-dev068 #
#                    0-debug\Obj\node.o F:\Firmware\emberZNet\firmware\EmberZ #
#                    Net\EM35x\app\sensor\ewb-em357\build\sensor-cortexm3-iar #
#                    -em357-em3xx-dev0680-debug\Obj\random.o                  #
#                    F:\Firmware\emberZNet\firmware\EmberZNet\EM35x\app\senso #
#                    r\ewb-em357\build\sensor-cortexm3-iar-em357-em3xx-dev068 #
#                    0-debug\Obj\security-common.o                            #
#                    F:\Firmware\emberZNet\firmware\EmberZNet\EM35x\app\senso #
#                    r\ewb-em357\build\sensor-cortexm3-iar-em357-em3xx-dev068 #
#                    0-debug\Obj\sensor.o F:\Firmware\emberZNet\firmware\Embe #
#                    rZNet\EM35x\app\sensor\ewb-em357\build\sensor-cortexm3-i #
#                    ar-em357-em3xx-dev0680-debug\Obj\serial.o                #
#                    F:\Firmware\emberZNet\firmware\EmberZNet\EM35x\app\senso #
#                    r\ewb-em357\build\sensor-cortexm3-iar-em357-em3xx-dev068 #
#                    0-debug\Obj\sim-eeprom.o F:\Firmware\emberZNet\firmware\ #
#                    EmberZNet\EM35x\app\sensor\ewb-em357\build\sensor-cortex #
#                    m3-iar-em357-em3xx-dev0680-debug\Obj\sleep.o             #
#                    F:\Firmware\emberZNet\firmware\EmberZNet\EM35x\app\senso #
#                    r\ewb-em357\build\sensor-cortexm3-iar-em357-em3xx-dev068 #
#                    0-debug\Obj\token-def.o F:\Firmware\emberZNet\firmware\E #
#                    mberZNet\EM35x\app\sensor\ewb-em357\build\sensor-cortexm #
#                    3-iar-em357-em3xx-dev0680-debug\Obj\token.o              #
#                    F:\Firmware\emberZNet\firmware\EmberZNet\EM35x\app\senso #
#                    r\ewb-em357\build\sensor-cortexm3-iar-em357-em3xx-dev068 #
#                    0-debug\Obj\uart.o F:\Firmware\emberZNet\firmware\EmberZ #
#                    Net\EM35x\build\alarm-library-cortexm3-iar-em357-em3xx-d #
#                    ebug\alarm-library.a F:\Firmware\emberZNet\firmware\Embe #
#                    rZNet\EM35x\build\binding-table-library-cortexm3-iar-em3 #
#                    57-em3xx-debug\binding-table-library.a                   #
#                    F:\Firmware\emberZNet\firmware\EmberZNet\EM35x\build\cbk #
#                    e-stub-library-cortexm3-iar-em357-em3xx\cbke-stub-librar #
#                    y.a F:\Firmware\emberZNet\firmware\EmberZNet\EM35x\build #
#                    \end-device-bind-stub-library-cortexm3-iar-em357-em3xx\e #
#                    nd-device-bind-stub-library.a                            #
#                    F:\Firmware\emberZNet\firmware\EmberZNet\EM35x\build\hal #
#                    -library-cortexm3-iar-em357-em3xx-debug\hal-library.a    #
#                    F:\Firmware\emberZNet\firmware\EmberZNet\EM35x\build\ins #
#                    tall-code-library-stub-cortexm3-iar-em357-em3xx\install- #
#                    code-library-stub.a F:\Firmware\emberZNet\firmware\Ember #
#                    ZNet\EM35x\build\multi-network-stub-library-cortexm3-iar #
#                    -em357-em3xx\multi-network-stub-library.a                #
#                    F:\Firmware\emberZNet\firmware\EmberZNet\EM35x\build\pac #
#                    ket-validate-library-cortexm3-iar-em357-em3xx-debug\pack #
#                    et-validate-library.a F:\Firmware\emberZNet\firmware\Emb #
#                    erZNet\EM35x\build\security-library-core-cortexm3-iar-em #
#                    357-em3xx-debug\security-library-core.a                  #
#                    F:\Firmware\emberZNet\firmware\EmberZNet\EM35x\build\sec #
#                    urity-library-link-keys-stub-cortexm3-iar-em357-em3xx\se #
#                    curity-library-link-keys-stub.a                          #
#                    F:\Firmware\emberZNet\firmware\EmberZNet\EM35x\build\zig #
#                    bee-pro-stack-cortexm3-iar-em357-em3xx-debug\zigbee-pro- #
#                    stack.a F:\Firmware\emberZNet\firmware\EmberZNet\EM35x\b #
#                    uild\zll-stub-library-cortexm3-iar-em357-em3xx\zll-stub- #
#                    library.a --redirect _Printf=_PrintfFull --redirect      #
#                    _Scanf=_ScanfFull -o F:\Firmware\emberZNet\firmware\Embe #
#                    rZNet\EM35x\app\sensor\ewb-em357\build\sensor-cortexm3-i #
#                    ar-em357-em3xx-dev0680-debug\Exe\sensor.out --map        #
#                    F:\Firmware\emberZNet\firmware\EmberZNet\EM35x\app\senso #
#                    r\ewb-em357\build\sensor-cortexm3-iar-em357-em3xx-dev068 #
#                    0-debug\Lst\sensor.map --log                             #
#                    initialization,modules,sections,veneers --log_file       #
#                    F:\Firmware\emberZNet\firmware\EmberZNet\EM35x\app\senso #
#                    r\ewb-em357\build\sensor-cortexm3-iar-em357-em3xx-dev068 #
#                    0-debug\Lst\sensor.log --config                          #
#                    F:\Firmware\emberZNet\firmware\EmberZNet\EM35x\app\senso #
#                    r\ewb-em357/../../../hal/micro/cortexm3/em35x/em357/iar- #
#                    cfg.icf --diag_suppress Lp012 --entry halEntryPoint      #
#                    --vfe                                                    #
#                                                                             #
#                                                                             #
###############################################################################

*******************************************************************************
*** RUNTIME MODEL ATTRIBUTES
***

CppFlavor       = *
__SystemLibrary = DLib


*******************************************************************************
*** PLACEMENT SUMMARY
***

"BAT": place at 0x08000000 { section BAT };
"HEADERS":
       place at start of [0x08002000-0x080020ff] { block HEADER_block };
"APP ro":
       place at start of [0x08002100-0x0802ffff] { block APPRO_block };
"NVM&SIMEE":
       place at end of [0x08002100-0x0802ffff] {
          zi section NVM, zi section SIMEE, zi section INTERNAL_STORAGE };
"FAT": place at 0x08040000 { section FAT };
"DEBUGCHAN":
       place at start of [0x20002ff0-0x20002fff] { rw section DEBUG_CHANNEL };
"APP rw":
       place at end of [0x20000000-0x20002fef] { block APPRW_block };
"Heap":
       place at start of [0x20000000-0x20002fef] { overlay EMHEAP_overlay };
"Guard":
       place in [from 0x20000000 to 0x20002fef] { rw section GUARD_REGION };

  Section                 Kind        Address     Size  Object
  -------                 ----        -------     ----  ------
"BAT":                                            0x54
  BAT                     uninit   0x08000000     0x54  cstartup-iar-common.o [1]
                                 - 0x08000054     0x54

"HEADERS":                                        0xac
  HEADER_block                     0x08002000     0xac  <Block>
    AAT                   const    0x08002000     0xac  cstartup-iar-common.o [1]
                                 - 0x080020ac     0xac

"APP ro":                                      0x1a034
  APPRO_block                      0x08002100  0x1a034  <Block>
    .intvec               const    0x08002100     0x90  cstartup-iar-common.o [1]
    .text                          0x08002190  0x19010  <Block>
      .text               ro code  0x08002190    0x2a0  adc.o [1]
      .text               ro code  0x08002430      0xc  spmr.o [8]
      .text               ro code  0x0800243c      0x6  spmr.o [8]
      .text               ro code  0x08002442      0xa  xsprout.o [6]
      .text               ro code  0x0800244c    0x5bc  analogue.o [16]
      .text               ro code  0x08002a08      0xe  spmr.o [8]
      .text               ro code  0x08002a18    0x250  diagnostic.o [1]
      .text               ro code  0x08002c68    0x152  micro-common-internal.o [8]
      .text               ro code  0x08002dbc     0xf0  analogue-cell-bias.o [16]
      .text               ro code  0x08002eac     0x68  mfg-token.o [1]
      .text               ro code  0x08002f14    0x130  token.o [1]
      .text               ro code  0x08003044    0x548  phy.o [16]
      .text               ro code  0x0800358c     0x50  analogue-filter.o [16]
      .text               ro code  0x080035dc    0x89c  phy-common.o [16]
      .text               ro code  0x08003e78    0x3ba  clocks.o [8]
      .text               ro code  0x08004234    0x2b0  micro.o [1]
      .text               ro code  0x080044e4     0xd4  analogue-vco.o [16]
      .text               ro code  0x080045b8    0x268  analogue-mod-dac.o [16]
      .text               ro code  0x08004820    0x1aa  analogue-lna.o [16]
      .text               ro code  0x080049cc    0x11c  caladc.o [8]
      .text               ro code  0x08004ae8     0xa4  micro-common.o [1]
      .text               ro code  0x08004b8c    0x3f4  debug.o [16]
      .text               ro code  0x08004f80    0x458  serial.o [1]
      .text               ro code  0x080053d8    0x198  micro-internal.o [8]
      .text               ro code  0x08005570     0xd2  mem-util.o [1]
      .text               ro code  0x08005644    0x1b8  sim-eeprom.o [1]
      .text               ro code  0x080057fc    0xad8  sim-eeprom-internal.o [8]
      .text               ro code  0x080062d4    0x5c0  mac-indirect.o [16]
      .text               ro code  0x08006894     0x40  child-table.o [16]
      .text               ro code  0x080068d4    0x1f8  ember-multi-network-stub.o [11]
      .text               ro code  0x08006acc    0x2cc  mac-receive.o [16]
      .text               ro code  0x08006d98    0x1b8  mac-em250.o [16]
      .text               ro code  0x08006f50     0xae  aes.o [16]
      .text               ro code  0x08006ffe      0x8  abs.o [6]
      .text               ro code  0x08007008     0x48  random.o [1]
      .text               ro code  0x08007050      0x8  spmr.o [8]
      .text               ro code  0x08007058    0x650  sleep.o [1]
      .text               ro code  0x080076a8     0x18  eui64.o [16]
      .text               ro code  0x080076c0      0x4  spmr.o [8]
      .text               ro code  0x080076c4      0xe  spmr.o [8]
      .text               ro code  0x080076d4      0x8  context-switch.o [8]
      .text               ro code  0x080076dc      0x4  spmr.o [8]
      .text               ro code  0x080076e0    0x288  uart.o [1]
      .text               ro code  0x08007968    0x13c  button.o [1]
      .text               ro code  0x08007aa4     0x90  cstartup-iar-common.o [1]
      .text               ro code  0x08007b34    0x6e8  packet-buffer.o [16]
      .text               ro code  0x0800821c    0x272  debug-jtag.o [16]
      .text               ro code  0x08008490    0x154  ember-stack-common.o [16]
      .text               ro code  0x080085e4    0x14c  ember-configuration.o [1]
      .text               ro code  0x08008730     0x6c  mpu.o [1]
      .text               ro code  0x0800879c     0x66  ABImemset.o [13]
      .text               ro code  0x08008804    0x128  flash.o [8]
      .text               ro code  0x0800892c    0x100  system-timer.o [8]
      .text               ro code  0x08008a2c    0x254  packet-header.o [16]
      .text               ro code  0x08008c80    0x258  event-control.o [16]
      .text               ro code  0x08008ed8    0x418  mac-arbiter.o [16]
      .text               ro code  0x080092f0     0x22  I64Shl.o [13]
      .text               ro code  0x08009314   0x138c  network.o [16]
      .text               ro code  0x0800a6a0    0x400  mac.o [16]
      .text               ro code  0x0800aaa0    0xd58  common.o [1]
      .text               ro code  0x0800b7f8    0x734  child.o [16]
      .text               ro code  0x0800bf2c   0x1be0  sensor.o [1]
      .text               ro code  0x0800db0c    0x32c  mac-header.o [16]
      .text               ro code  0x0800de38     0x9e  led.o [1]
      .text               ro code  0x0800ded8     0x60  symbol-timer.o [16]
      .text               ro code  0x0800df38     0x44  byte-utilities.o [16]
      .text               ro code  0x0800df7c     0x24  crc.o [1]
      .text               ro code  0x0800dfa0     0x2a  zll-stubs.o [17]
      .text               ro code  0x0800dfcc    0x388  zigbee-stack.o [16]
      .text               ro code  0x0800e354   0x1524  association.o [16]
      .text               ro code  0x0800f878    0x344  management.o [16]
      .text               ro code  0x0800fbbc    0x284  jit.o [16]
      .text               ro code  0x0800fe40    0x3ce  command.o [16]
      .text               ro code  0x08010210    0x408  scan.o [16]
      .text               ro code  0x08010618    0x3c0  route-table.o [16]
      .text               ro code  0x080109d8    0x150  broadcast.o [16]
      .text               ro code  0x08010b28    0x292  retry.o [16]
      .text               ro code  0x08010dbc     0x64  unicast-table.o [16]
      .text               ro code  0x08010e20    0x648  neighbor.o [16]
      .text               ro code  0x08011468    0x5f2  crypto.o [16]
      .text               ro code  0x08011a5c    0x580  zigbee-packet-header.o [16]
      .text               ro code  0x08011fdc    0x774  route-discovery.o [16]
      .text               ro code  0x08012750    0x8c0  application-support.o [16]
      .text               ro code  0x08013010    0xc3c  aps-security.o [14]
      .text               ro code  0x08013c4c    0x1f4  zigbee-neighbor.o [16]
      .text               ro code  0x08013e40    0x2b4  packet-validate.o [12]
      .text               ro code  0x080140f4    0x2ec  random-id.o [16]
      .text               ro code  0x080143e0    0x148  route-error.o [16]
      .text               ro code  0x08014528    0x3a0  leave.o [16]
      .text               ro code  0x080148c8    0x35c  neighbor-exchange.o [16]
      .text               ro code  0x08014c24    0x3ec  address-table.o [16]
      .text               ro code  0x08015010    0x17c  child-aging.o [16]
      .text               ro code  0x0801518c    0xb5c  bootload-utils.o [1]
      .text               ro code  0x08015ce8    0x8fc  aps-retry.o [16]
      .text               ro code  0x080165e4     0x76  ABImemcpy.o [13]
      .text               ro code  0x0801665a     0x3c  node.o [1]
      .text               ro code  0x08016698    0x500  aps-keys.o [14]
      .text               ro code  0x08016b98    0x208  alarm.o [3]
      .text               ro code  0x08016da0    0x1cc  lcd.o [1]
      .text               ro code  0x08016f6c     0x34  sprintf.o [6]
      .text               ro code  0x08016fa0     0x78  form-and-join-node-adapter.o [1]
      .text               ro code  0x08017018     0xe4  zigbee-dispatch.o [16]
      .text               ro code  0x080170fc     0x36  strlen.o [13]
      .text               ro code  0x08017134     0x78  bootloader-interface-standalone.o [1]
      .text               ro code  0x080171ac     0x12  phy-util.o [16]
      .text               ro code  0x080171c0    0x3ac  binding-table.o [4]
      .text               ro code  0x0801756c     0x14  cbke-crypto-engine-stub.o [5]
      .text               ro code  0x08017580    0x370  zdo-channel.o [16]
      .text               ro code  0x080178f0      0x8  high-security-stub.o [14]
      .text               ro code  0x080178f8    0x4f0  zigbee-device-util.o [16]
      .text               ro code  0x08017de8    0x4a0  trust-center-util.o [14]
      .text               ro code  0x08018288     0x2c  form-and-join-node-callbacks.o [1]
      .text               ro code  0x080182b4     0xf0  token-cache.o [16]
      .text               ro code  0x080183a4    0x2b8  aps-encryption.o [14]
      .text               ro code  0x0801865c      0x4  install-code-stub.o [9]
      .text               ro code  0x08018660      0x4  aps-skke-stub.o [14]
      .text               ro code  0x08018664      0xe  aps-keys-full-stub.o [15]
      .text               ro code  0x08018674     0x80  security-config-mfg-3xx.o [14]
      .text               ro code  0x080186f4     0x62  hmac.o [14]
      .text               ro code  0x08018758    0xcce  xprintffull.o [6]
      .text               ro code  0x08019428    0x484  form-and-join.o [1]
      .text               ro code  0x080198ac      0xc  bootloader-interface.o [1]
      .text               ro code  0x080198b8    0x84c  zigbee-device.o [16]
      .text               ro code  0x0801a104      0x8  end-device-bind-stub.o [7]
      .text               ro code  0x0801a10c    0x15c  aes-mmo.o [14]
      .text               ro code  0x0801a268     0x16  strchr.o [13]
      .text               ro code  0x0801a280     0x58  memchr.o [13]
      .text               ro code  0x0801a2d8     0xee  I64DivMod.o [13]
      .text               ro code  0x0801a3c6     0x42  xdnorm.o [10]
      .text               ro code  0x0801a408     0x2e  DblCmpLe.o [10]
      .text               ro code  0x0801a438     0x2e  DblCmpGe.o [10]
      .text               ro code  0x0801a468    0x10c  xdscale.o [10]
      .text               ro code  0x0801a574     0x58  DblToI32.o [10]
      .text               ro code  0x0801a5cc     0x30  I32ToDbl.o [10]
      .text               ro code  0x0801a5fc    0x180  DblSub.o [10]
      .text               ro code  0x0801a77c    0x1a2  DblMul.o [10]
      .text               ro code  0x0801a920    0x246  DblDiv.o [10]
      .text               ro code  0x0801ab66      0xe  div.o [6]
      .text               ro code  0x0801ab74    0x1c4  zdo-binding-table.o [4]
      .text               ro code  0x0801ad38      0x2  I64DivZer.o [13]
      .text               ro code  0x0801ad3c     0xd4  DblAdd.o [10]
      .text               ro code  0x0801ae10     0x98  buzzer.o [1]
      .text               ro code  0x0801aea8     0x80  faults.o [1]
      .text               ro code  0x0801af28      0x0  isr-stubs.o [1]
      .text               ro code  0x0801af28      0x0  isr-stubs.o [1]
      .text               ro code  0x0801af28      0x0  isr-stubs.o [1]
      .text               ro code  0x0801af28      0x0  isr-stubs.o [1]
      .text               ro code  0x0801af28      0x0  isr-stubs.o [1]
      .text               ro code  0x0801af28      0x0  isr-stubs.o [1]
      .text               ro code  0x0801af28      0x0  isr-stubs.o [1]
      .text               ro code  0x0801af28      0x0  isr-stubs.o [1]
      .text               ro code  0x0801af28      0x0  isr-stubs.o [1]
      .text               ro code  0x0801af28      0x0  isr-stubs.o [1]
      .text               ro code  0x0801af28      0x0  isr-stubs.o [1]
      .text               ro code  0x0801af28      0x0  isr-stubs.o [1]
      .text               ro code  0x0801af28      0x0  isr-stubs.o [1]
      .text               ro code  0x0801af28      0x4  isr-stubs.o [1]
      .text               ro code  0x0801af2c    0x1d0  cstartup-iar.o [8]
      .text               ro code  0x0801b0fc      0x6  ABImemclr.o [13]
      .text               ro code  0x0801b104      0x6  ABImemclr4.o [13]
      .text               ro code  0x0801b10c     0x10  context-switch.o [8]
      .text               ro code  0x0801b11c     0x32  ABImemset48.o [13]
      .text               ro code  0x0801b150     0x38  context-switch.o [8]
      .text               ro code  0x0801b188     0x18  cal-pads.o [16]
    .rodata               const    0x0801b1a0    0x910  Language.o [1]
    .rodata               const    0x0801bab0      0x3  ember-configuration.o [1]
    .rodata               const    0x0801bab3      0x1  aps-skke-stub.o [14]
    .rodata               const    0x0801bab4     0x1c  sensor.o [1]
    .rodata               const    0x0801bad0      0x8  serial.o [1]
    .rodata               const    0x0801bad8     0x2c  sim-eeprom.o [1]
    .rodata               const    0x0801bb04    0x254  token-def.o [1]
    .rodata               const    0x0801bd58      0x8  ember-version.o [16]
    .rodata               const    0x0801bd60     0x20  mfg-token.o [1]
    .data_init                     0x0801bd80    0x3b4  <Block>
      Initializer bytes   ro data  0x0801bd80    0x3b4  <for .data-1>
                                 - 0x0801c134  0x1a034

"NVM&SIMEE":                                    0x2000
  SIMEE                            0x0802e000   0x2000  <Block>
    SIMEE                 uninit   0x0802e000   0x2000  sim-eeprom.o [1]
                                 - 0x08030000   0x2000

"FAT":                                            0x2c
  FAT                     uninit   0x08040000     0x2c  cstartup-iar-common.o [1]
                                 - 0x0804002c     0x2c

"Heap":                                          0x580
  EMHEAP_overlay                   0x20000000    0x570  <Overlay>
    part 1:
      EMHEAP              uninit   0x20000000    0x570  ember-configuration.o [1]
    part 2:
      RESETINFO                    0x20000000     0x98  <Block>
        RESETINFO         const    0x20000000      0x0  faults.o [1]
        RESETINFO         const    0x20000000      0x0  isr-stubs.o [1]
        RESETINFO         const    0x20000000      0x0  spmr.o [8]
        RESETINFO         const    0x20000000      0x0  context-switch.o [8]
        RESETINFO         uninit   0x20000000     0x98  cstartup-iar-common.o [1]
                                 - 0x20000570    0x570

"Guard":                                          0x20
  GUARD_REGION            uninit   0x20000580     0x20  cstartup-iar-common.o [1]
                                 - 0x200005a0     0x20

"APP rw":                                       0x10b6
  APPRW_block                      0x20001f38   0x10b6  <Block>
    ALIGN_CSTACK                   0x20001f38    0x758  <Block>
      CSTACK                       0x20001f38    0x758  <Block>
        CSTACK            const    0x20001f38      0x0  faults.o [1]
        CSTACK            const    0x20001f38      0x0  isr-stubs.o [1]
        CSTACK            const    0x20001f38      0x0  spmr.o [8]
        CSTACK            const    0x20001f38      0x0  context-switch.o [8]
        CSTACK            uninit   0x20001f38    0x758  cstartup-iar-common.o [1]
    .data                          0x20002690    0x3b4  <Block>
      .data-1                      0x20002690    0x3b2  <Init block>
        .data             inited   0x20002690     0x2c  bootload-utils.o [1]
        .data             inited   0x200026bc      0x8  buzzer.o [1]
        .data             inited   0x200026c4     0x10  common.o [1]
        .data             inited   0x200026d4      0x1  ember-configuration.o [1]
        .data             inited   0x200026d5      0x1  ember-configuration.o [1]
        .data             inited   0x200026d8      0x4  ember-configuration.o [1]
        .data             inited   0x200026dc      0x4  ember-configuration.o [1]
        .data             inited   0x200026e0      0x4  ember-configuration.o [1]
        .data             inited   0x200026e4      0x4  ember-configuration.o [1]
        .data             inited   0x200026e8      0x4  ember-configuration.o [1]
        .data             inited   0x200026ec      0x1  ember-configuration.o [1]
        .data             inited   0x200026f0      0x4  ember-configuration.o [1]
        .data             inited   0x200026f4      0x1  ember-configuration.o [1]
        .data             inited   0x200026f8      0x4  ember-configuration.o [1]
        .data             inited   0x200026fc      0x4  ember-configuration.o [1]
        .data             inited   0x20002700      0x4  ember-configuration.o [1]
        .data             inited   0x20002704      0x4  ember-configuration.o [1]
        .data             inited   0x20002708      0x4  ember-configuration.o [1]
        .data             inited   0x2000270c      0x1  ember-configuration.o [1]
        .data             inited   0x20002710      0x4  ember-configuration.o [1]
        .data             inited   0x20002714      0x1  ember-configuration.o [1]
        .data             inited   0x20002718      0x4  ember-configuration.o [1]
        .data             inited   0x2000271c      0x1  ember-configuration.o [1]
        .data             inited   0x20002720      0x4  ember-configuration.o [1]
        .data             inited   0x20002724      0x1  ember-configuration.o [1]
        .data             inited   0x20002728      0x4  ember-configuration.o [1]
        .data             inited   0x2000272c      0x1  ember-configuration.o [1]
        .data             inited   0x20002730      0x4  ember-configuration.o [1]
        .data             inited   0x20002734      0x4  ember-configuration.o [1]
        .data             inited   0x20002738      0x4  ember-configuration.o [1]
        .data             inited   0x2000273c      0x1  ember-configuration.o [1]
        .data             inited   0x20002740      0x4  ember-configuration.o [1]
        .data             inited   0x20002744      0x1  ember-configuration.o [1]
        .data             inited   0x20002748      0x4  ember-configuration.o [1]
        .data             inited   0x2000274c      0x2  ember-configuration.o [1]
        .data             inited   0x2000274e      0x1  ember-configuration.o [1]
        .data             inited   0x20002750      0x4  ember-configuration.o [1]
        .data             inited   0x20002754      0x1  ember-configuration.o [1]
        .data             inited   0x20002755      0x1  ember-configuration.o [1]
        .data             inited   0x20002756      0x1  ember-configuration.o [1]
        .data             inited   0x20002757      0x1  ember-configuration.o [1]
        .data             inited   0x20002758      0x2  ember-configuration.o [1]
        .data             inited   0x2000275a      0x1  ember-configuration.o [1]
        .data             inited   0x2000275b      0x1  ember-configuration.o [1]
        .data             inited   0x2000275c      0x1  ember-configuration.o [1]
        .data             inited   0x2000275d      0x1  ember-configuration.o [1]
        .data             inited   0x20002760      0xc  form-and-join-node-adapter.o [1]
        .data             inited   0x2000276c     0x28  micro.o [1]
        .data             inited   0x20002794     0x40  mpu.o [1]
        .data             inited   0x200027d4      0x4  random.o [1]
        .data             inited   0x200027d8      0x1  sensor.o [1]
        .data             inited   0x200027dc     0x10  sensor.o [1]
        .data             inited   0x200027ec     0xb4  sensor.o [1]
        .data             inited   0x200028a0     0x2c  serial.o [1]
        .data             inited   0x200028cc      0x9  analogue.o [16]
        .data             inited   0x200028d8      0xe  analogue.o [16]
        .data             inited   0x200028e6      0x1  packet-buffer.o [16]
        .data             inited   0x200028e8      0x6  child.o [16]
        .data             inited   0x200028f0      0x8  zigbee-stack.o [16]
        .data             inited   0x200028f8      0x1  zigbee-stack.o [16]
        .data             inited   0x200028fc      0x4  micro-internal.o [8]
        .data             inited   0x20002900      0xe  jit.o [16]
        .data             inited   0x20002910     0x24  association.o [16]
        .data             inited   0x20002934      0xc  association.o [16]
        .data             inited   0x20002940      0x4  application-support.o [16]
        .data             inited   0x20002944      0x4  debug.o [16]
        .data             inited   0x20002948     0x24  scan.o [16]
        .data             inited   0x2000296c      0xa  clocks.o [8]
        .data             inited   0x20002978      0xe  leave.o [16]
        .data             inited   0x20002986      0x8  analogue-mod-dac.o [16]
        .data             inited   0x20002990     0x1c  phy-common.o [16]
        .data             inited   0x200029ac      0x1  phy-common.o [16]
        .data             inited   0x200029ad      0x2  random-id.o [16]
        .data             inited   0x200029b0      0x4  network.o [16]
        .data             inited   0x200029b4      0x1  network.o [16]
        .data             inited   0x200029b8     0x14  mac-arbiter.o [16]
        .data             inited   0x200029cc      0x8  mac-arbiter.o [16]
        .data             inited   0x200029d4     0x12  mac-indirect.o [16]
        .data             inited   0x200029e8     0x14  zdo-channel.o [16]
        .data             inited   0x200029fc      0x2  mac-em250.o [16]
        .data             inited   0x200029fe      0x1  zigbee-device-util.o [16]
        .data             inited   0x20002a00     0x10  mac-receive.o [16]
        .data             inited   0x20002a10      0xe  aps-retry.o [16]
        .data             inited   0x20002a20      0xe  management.o [16]
        .data             inited   0x20002a2e      0x2  trust-center-util.o [14]
        .data             inited   0x20002a30      0x2  token-cache.o [16]
        .data             inited   0x20002a32      0x1  packet-validate.o [12]
        .data             inited   0x20002a34      0x4  mac-header.o [16]
        .data             inited   0x20002a38      0xa  zigbee-device.o [16]
    DLIB_PERTHREAD_INITIALIZED_DATA
                                   0x20002a44      0x0  <Block>
    DLIB_PERTHREAD_ZERO_DATA
                                   0x20002a44      0x0  <Block>
    .bss                           0x20002a48    0x5a6  <Block>
      .bss                uninit   0x20002a48     0x10  mac-indirect.o [16]
      .bss                uninit   0x20002a58     0x1e  adc.o [1]
      .bss                uninit   0x20002a76      0x2  cstartup-iar-common.o [1]
      .bss                uninit   0x20002a78     0x80  bootload-utils.o [1]
      .bss                uninit   0x20002af8     0x48  bootload-utils.o [1]
      .bss                uninit   0x20002b40      0xc  common.o [1]
      .bss                uninit   0x20002b4c     0x24  ember-configuration.o [1]
      .bss                uninit   0x20002b70     0x14  form-and-join.o [1]
      .bss                uninit   0x20002b84     0x88  serial.o [1]
      .bss                uninit   0x20002c0c     0x18  serial.o [1]
      .bss                uninit   0x20002c24     0x5c  sim-eeprom.o [1]
      .bss                uninit   0x20002c80      0xc  sleep.o [1]
      .bss                uninit   0x20002c8c     0x24  analogue.o [16]
      .bss                uninit   0x20002cb0      0x8  eui64.o [16]
      .bss                uninit   0x20002cb8      0xc  zigbee-dispatch.o [16]
      .bss                uninit   0x20002cc4      0x8  system-timer.o [8]
      .bss                uninit   0x20002ccc      0xc  association.o [16]
      .bss                uninit   0x20002cd8      0x8  aps-keys.o [14]
      .bss                uninit   0x20002ce0      0xc  debug.o [16]
      .bss                uninit   0x20002cec    0x118  phy.o [16]
      .bss                uninit   0x20002e04      0x8  context-switch.o [8]
      .bss                uninit   0x20002e0c      0x8  ember-multi-network-stub.o [11]
      .bss                uninit   0x20002e14      0x8  ember-multi-network-stub.o [11]
      .bss                uninit   0x20002e1c      0x8  ember-multi-network-stub.o [11]
      .bss                uninit   0x20002e24      0x8  neighbor.o [16]
      .bss                uninit   0x20002e2c     0x64  broadcast.o [16]
      .bss                uninit   0x20002e90      0x8  cal-pads.o [16]
      .bss                uninit   0x20002e98      0x8  mac-em250.o [16]
      .bss                uninit   0x20002ea0      0x8  high-security-stub.o [14]
      .bss                uninit   0x20002ea8      0x8  zigbee-device-util.o [16]
      .bss                uninit   0x20002eb0      0xc  mac.o [16]
      .bss                uninit   0x20002ebc     0x80  mac.o [16]
      .bss                uninit   0x20002f3c      0x8  aps-skke-stub.o [14]
      .bss                uninit   0x20002f44      0x8  neighbor-exchange.o [16]
      .bss                uninit   0x20002f4c     0x10  retry.o [16]
      .bss                uninit   0x20002f5c     0x30  retry.o [16]
      .bss                uninit   0x20002f8c      0x8  end-device-bind-stub.o [7]
      .bss                uninit   0x20002f94      0x8  zll-stubs.o [17]
      .bss                uninit   0x20002f9c      0x4  crypto.o [16]
      .bss                uninit   0x20002fa0     0x14  unicast-table.o [16]
      .bss                uninit   0x20002fb4      0x8  mac-header.o [16]
      .bss                uninit   0x20002fbc      0x4  sim-eeprom-internal.o [8]
      .bss                uninit   0x20002fc0      0x4  route-table.o [16]
      .bss                uninit   0x20002fc4      0x2  button.o [1]
      .bss                uninit   0x20002fc6      0x1  ember-configuration.o [1]
      .bss                uninit   0x20002fc7      0x1  ember-configuration.o [1]
      .bss                uninit   0x20002fc8      0x1  ember-configuration.o [1]
      .bss                uninit   0x20002fc9      0x1  ember-configuration.o [1]
      .bss                uninit   0x20002fca      0x1  ember-configuration.o [1]
      .bss                uninit   0x20002fcb      0x1  ember-configuration.o [1]
      .bss                uninit   0x20002fcc      0x1  ember-configuration.o [1]
      .bss                uninit   0x20002fcd      0x1  ember-configuration.o [1]
      .bss                uninit   0x20002fce      0x1  ember-configuration.o [1]
      .bss                uninit   0x20002fcf      0x1  ember-configuration.o [1]
      .bss                uninit   0x20002fd0      0x1  ember-configuration.o [1]
      .bss                uninit   0x20002fd1      0x1  ember-configuration.o [1]
      .bss                uninit   0x20002fd2      0x1  micro-common.o [1]
      .bss                uninit   0x20002fd3      0x2  token.o [1]
      .bss                uninit   0x20002fd5      0x1  zigbee-dispatch.o [16]
      .bss                uninit   0x20002fd6      0x1  command.o [16]
      .bss                uninit   0x20002fd7      0x1  zigbee-stack.o [16]
      .bss                uninit   0x20002fd8      0x1  association.o [16]
      .bss                uninit   0x20002fd9      0x1  application-support.o [16]
      .bss                uninit   0x20002fda      0x1  debug.o [16]
      .bss                uninit   0x20002fdb      0x2  event-control.o [16]
      .bss                uninit   0x20002fdd      0x1  flash.o [8]
      .bss                uninit   0x20002fde      0x2  phy.o [16]
      .bss                uninit   0x20002fe0      0x2  phy.o [16]
      .bss                uninit   0x20002fe2      0x3  analogue-vco.o [16]
      .bss                uninit   0x20002fe5      0x1  phy-common.o [16]
      .bss                uninit   0x20002fe6      0x1  alarm.o [3]
      .bss                uninit   0x20002fe7      0x1  neighbor.o [16]
      .bss                uninit   0x20002fe8      0x1  random-id.o [16]
      .bss                uninit   0x20002fe9      0x2  network.o [16]
      .bss                uninit   0x20002feb      0x1  debug-jtag.o [16]
      .bss                uninit   0x20002fec      0x1  high-security-stub.o [14]
      .bss                uninit   0x20002fed      0x1  route-discovery.o [16]
                                 - 0x20002fee   0x10b6

"DEBUGCHAN":                                      0x10
  DEBUG_CHANNEL                    0x20002ff0     0x10  <Block>
    DEBUG_CHANNEL         uninit   0x20002ff0     0x10  debug-jtag.o [16]
                                 - 0x20003000     0x10



*******************************************************************************
*** MODULE SUMMARY
***

    Module                             ro code  ro data  rw data
    ------                             -------  -------  -------
F:\Firmware\emberZNet\firmware\EmberZNet\EM35x\app\sensor\ewb-em357\build\sensor-cortexm3-iar-em357-em3xx-dev0680-debug\Obj: [1]
    Language.o                                    2 320
    adc.o                                  672                30
    bootload-utils.o                     2 908       44      244
    bootloader-interface-standalone.o      120
    bootloader-interface.o                  12
    button.o                               316                 2
    buzzer.o                               152        8        8
    common.o                             3 416       16       28
    crc.o                                   36
    cstartup-iar-common.o                  144      316    2 042
    diagnostic.o                           592
    ember-configuration.o                  332      141      156
    faults.o                               128
    form-and-join-node-adapter.o           120       14       12
    form-and-join-node-callbacks.o          44
    form-and-join.o                      1 156                20
    isr-stubs.o                              4
    lcd.o                                  460
    led.o                                  158
    mem-util.o                             210
    mfg-token.o                            104       32
    micro-common.o                         164                 1
    micro.o                                688       40       40
    mpu.o                                  108       64       64
    node.o                                  60
    random.o                                72        4        4
    sensor.o                             7 136      228      197
    serial.o                             1 112       52      204
    sim-eeprom.o                           440       44    8 284
    sleep.o                              1 616                12
    token-def.o                                     596
    token.o                                304                 2
    uart.o                                 648
    ------------------------------------------------------------
    Total:                              23 432    3 919   11 350

command line: [2]
    ------------------------------------------------------------
    Total:

alarm-library.a: [3]
    alarm.o                                520                 1
    ------------------------------------------------------------
    Total:                                 520                 1

binding-table-library.a: [4]
    binding-table.o                        940
    zdo-binding-table.o                    452
    ------------------------------------------------------------
    Total:                               1 392

cbke-stub-library.a: [5]
    cbke-crypto-engine-stub.o               20
    ------------------------------------------------------------
    Total:                                  20

dl7M_tln.a: [6]
    abs.o                                    8
    div.o                                   14
    sprintf.o                               52
    xprintffull.o                        3 278
    xsprout.o                               10
    ------------------------------------------------------------
    Total:                               3 362

end-device-bind-stub-library.a: [7]
    end-device-bind-stub.o                   8                 8
    ------------------------------------------------------------
    Total:                                   8                 8

hal-library.a: [8]
    caladc.o                               284
    clocks.o                               954       10       10
    context-switch.o                        80                 8
    cstartup-iar.o                         464
    flash.o                                296                 1
    micro-common-internal.o                338
    micro-internal.o                       408        7        4
    sim-eeprom-internal.o                2 776                 4
    spmr.o                                  62
    system-timer.o                         256                 8
    ------------------------------------------------------------
    Total:                               5 918       17       35

install-code-library-stub.a: [9]
    install-code-stub.o                      4
    ------------------------------------------------------------
    Total:                                   4

m7M_tl.a: [10]
    DblAdd.o                               212
    DblCmpGe.o                              46
    DblCmpLe.o                              46
    DblDiv.o                               582
    DblMul.o                               418
    DblSub.o                               384
    DblToI32.o                              88
    I32ToDbl.o                              48
    xdnorm.o                                66
    xdscale.o                              268
    ------------------------------------------------------------
    Total:                               2 158

multi-network-stub-library.a: [11]
    ember-multi-network-stub.o             504                24
    ------------------------------------------------------------
    Total:                                 504                24

packet-validate-library.a: [12]
    packet-validate.o                      692        1        1
    ------------------------------------------------------------
    Total:                                 692        1        1

rt7M_tl.a: [13]
    ABImemclr.o                              6
    ABImemclr4.o                             6
    ABImemcpy.o                            118
    ABImemset.o                            102
    ABImemset48.o                           50
    I64DivMod.o                            238
    I64DivZer.o                              2
    I64Shl.o                                34
    memchr.o                                88
    strchr.o                                22
    strlen.o                                54
    ------------------------------------------------------------
    Total:                                 720

security-library-core.a: [14]
    aes-mmo.o                              348
    aps-encryption.o                       696
    aps-keys.o                           1 280                 8
    aps-security.o                       3 132
    aps-skke-stub.o                          4        1        8
    high-security-stub.o                     8                 9
    hmac.o                                  98
    security-config-mfg-3xx.o              128
    trust-center-util.o                  1 184        2        2
    ------------------------------------------------------------
    Total:                               6 878        3       27

security-library-link-keys-stub.a: [15]
    aps-keys-full-stub.o                    14
    ------------------------------------------------------------
    Total:                                  14

zigbee-pro-stack.a: [16]
    address-table.o                      1 004
    aes.o                                  174
    analogue-cell-bias.o                   240
    analogue-filter.o                       80
    analogue-lna.o                         426
    analogue-mod-dac.o                     616        8        8
    analogue-vco.o                         212                 3
    analogue.o                           1 468       26       59
    application-support.o                2 240        4        5
    aps-retry.o                          2 300       14       14
    association.o                        5 412       50       61
    broadcast.o                            336               100
    byte-utilities.o                        68
    cal-pads.o                              24                 8
    child-aging.o                          380
    child-table.o                           64
    child.o                              1 844        7        6
    command.o                              974                 1
    crypto.o                             1 522                 4
    debug-jtag.o                           626                17
    debug.o                              1 012        4       17
    ember-stack-common.o                   340
    ember-version.o                                   8
    eui64.o                                 24                 8
    event-control.o                        600                 2
    jit.o                                  644       14       14
    leave.o                                928       16       14
    mac-arbiter.o                        1 048       31       28
    mac-em250.o                            440        2       10
    mac-header.o                           812        5       12
    mac-indirect.o                       1 472       18       34
    mac-receive.o                          716       17       16
    mac.o                                1 024               140
    management.o                           836       16       14
    neighbor-exchange.o                    860                 8
    neighbor.o                           1 608                 9
    network.o                            5 004        6        7
    packet-buffer.o                      1 768        1        1
    packet-header.o                        596
    phy-common.o                         2 204       31       30
    phy-util.o                              18
    phy.o                                1 352               284
    random-id.o                            748        2        3
    retry.o                                658                64
    route-discovery.o                    1 908                 1
    route-error.o                          328
    route-table.o                          960                 4
    scan.o                               1 032       36       36
    symbol-timer.o                          96
    token-cache.o                          240        2        2
    unicast-table.o                        100                20
    zdo-channel.o                          880       22       20
    zigbee-device-util.o                 1 264        1        9
    zigbee-device.o                      2 124       10       10
    zigbee-dispatch.o                      228                13
    zigbee-neighbor.o                      500
    zigbee-packet-header.o               1 408
    zigbee-stack.o                         904       11       10
    ------------------------------------------------------------
    Total:                              56 694      362    1 126

zll-stub-library.a: [17]
    zll-stubs.o                             42                 8
    ------------------------------------------------------------
    Total:                                  42                 8

    Gaps                                    58                60
    Linker created                                    2    1 392
----------------------------------------------------------------
    Grand Total:                       102 416    4 304   14 032


*******************************************************************************
*** ENTRY LIST
***

Entry                      Address    Size  Type      Object
-----                      -------    ----  ----      ------
.bss$$Base              0x20002a48           --   Gb  - Linker created -
.bss$$Length            0x000005a6           --   Gb  - Linker created -
.bss$$Limit             0x20002fee           --   Gb  - Linker created -
.data$$Base             0x20002690           --   Gb  - Linker created -
.data$$Limit            0x20002a44           --   Gb  - Linker created -
.data_init$$Base        0x0801bd80           --   Gb  - Linker created -
.data_init$$Length      0x000003b4           --   Gb  - Linker created -
.data_init$$Limit       0x0801c134           --   Gb  - Linker created -
.noinit$$Base           0x00000000           --   Gb  - Linker created -
.text$$Base             0x08002190           --   Gb  - Linker created -
.text$$Limit            0x0801b1a0           --   Gb  - Linker created -
.textrw$$Base           0x00000000           --   Gb  - Linker created -
.textrw_init$$Base      0x00000000           --   Gb  - Linker created -
.textrw_init$$Length    0x00000000           --   Gb  - Linker created -
ALIGN_CSTACK$$Base      0x20001f38           --   Gb  - Linker created -
ALIGN_CSTACK$$Limit     0x20002690           --   Gb  - Linker created -
APPRO_block$$Base       0x08002100           --   Gb  - Linker created -
APPRO_block$$Limit      0x0801c134           --   Gb  - Linker created -
APPRW_block$$Base       0x20001f38           --   Gb  - Linker created -
APPRW_block$$Limit      0x20002fee           --   Gb  - Linker created -
APP_RAM$$Base           0x00000000           --   Gb  - Linker created -
APP_RAM$$Length         0x00000000           --   Gb  - Linker created -
CSTACK$$Base            0x20001f38           --   Gb  - Linker created -
CSTACK$$Limit           0x20002690           --   Gb  - Linker created -
CharSetASCII_8x16       0x0801b1a0   0x910  Data  Gb  Language.o [1]
DEBUG_CHANNEL$$Base     0x20002ff0           --   Gb  - Linker created -
DEBUG_CHANNEL$$Limit    0x20003000           --   Gb  - Linker created -
DLIB_PERTHREAD_INITIALIZED_DATA$$Base
                        0x20002a44           --   Gb  - Linker created -
DLIB_PERTHREAD_INITIALIZED_DATA$$Limit
                        0x20002a44           --   Gb  - Linker created -
DLIB_PERTHREAD_ZERO_DATA$$Base
                        0x20002a44           --   Gb  - Linker created -
DLIB_PERTHREAD_ZERO_DATA$$Length
                        0x00000000           --   Gb  - Linker created -
DLIB_PERTHREAD_ZERO_DATA$$Limit
                        0x20002a44           --   Gb  - Linker created -
EMHEAP_overlay$$Base    0x20000000           --   Gb  - Linker created -
EMHEAP_overlay$$Limit   0x20000570           --   Gb  - Linker created -
ERASE_CRITICAL_THRESHOLD
                        0x0801bae4     0x2  Data  Gb  sim-eeprom.o [1]
HEADER_block$$Base      0x08002000           --   Gb  - Linker created -
HEADER_block$$Limit     0x080020ac           --   Gb  - Linker created -
ID_COUNT                0x0801bae6     0x2  Data  Gb  sim-eeprom.o [1]
INTERNAL_STORAGE$$Base  0x00000000           --   Gb  - Linker created -
LEFT_BASE               0x0801badc     0x2  Data  Gb  sim-eeprom.o [1]
LEFT_TOP                0x0801bade     0x2  Data  Gb  sim-eeprom.o [1]
Nvdd                    0x20002a5e     0x2  Data  Lc  adc.o [1]
Nvss                    0x20002a74     0x2  Data  Lc  adc.o [1]
PTR_CACHE_SIZE          0x0801bae8     0x2  Data  Gb  sim-eeprom.o [1]
PendSV_Handler          0x0801b151          Code  Gb  context-switch.o [8]
REAL_PAGES_PER_VIRTUAL  0x0801bad8     0x1  Data  Gb  sim-eeprom.o [1]
REAL_PAGE_SIZE          0x0801bada     0x2  Data  Gb  sim-eeprom.o [1]
RESETINFO$$Base         0x20000000           --   Gb  - Linker created -
RESETINFO$$Limit        0x20000098           --   Gb  - Linker created -
RIGHT_BASE              0x0801bae0     0x2  Data  Gb  sim-eeprom.o [1]
RIGHT_TOP               0x0801bae2     0x2  Data  Gb  sim-eeprom.o [1]
Region$$Table$$Base     0x00000000           --   Gb  - Linker created -
Region$$Table$$Limit    0x00000000           --   Gb  - Linker created -
SIMEE$$Base             0x0802e000           --   Gb  - Linker created -
SIMEE$$Limit            0x08030000           --   Gb  - Linker created -
TOKEN_MFG_1V8_REG_VOLTAGE
                        0x0801bd68     0x2  Data  Gb  mfg-token.o [1]
TOKEN_MFG_ANALOG_TRIM_BOOST
                        0x0801bd62     0x2  Data  Gb  mfg-token.o [1]
TOKEN_MFG_ANALOG_TRIM_BOTH
                        0x0801bd64     0x2  Data  Gb  mfg-token.o [1]
TOKEN_MFG_ANALOG_TRIM_NORMAL
                        0x0801bd60     0x2  Data  Gb  mfg-token.o [1]
TOKEN_MFG_BOARD_NAME    0x0801bd6e     0x2  Data  Gb  mfg-token.o [1]
TOKEN_MFG_BOOTLOAD_AES_KEY
                        0x0801bd74     0x2  Data  Gb  mfg-token.o [1]
TOKEN_MFG_CCA_THRESHOLD
                        0x0801bd7c     0x2  Data  Gb  mfg-token.o [1]
TOKEN_MFG_EUI_64        0x0801bd7e     0x2  Data  Gb  mfg-token.o [1]
TOKEN_MFG_FIB_VERSION   0x0801bd6c     0x2  Data  Gb  mfg-token.o [1]
TOKEN_MFG_MANUF_ID      0x0801bd70     0x2  Data  Gb  mfg-token.o [1]
TOKEN_MFG_OSC24M_BIAS_TRIM
                        0x0801bd76     0x2  Data  Gb  mfg-token.o [1]
TOKEN_MFG_PHY_CONFIG    0x0801bd72     0x2  Data  Gb  mfg-token.o [1]
TOKEN_MFG_REG_TRIM      0x0801bd66     0x2  Data  Gb  mfg-token.o [1]
TOKEN_MFG_SECURITY_CONFIG
                        0x0801bd7a     0x2  Data  Gb  mfg-token.o [1]
TOKEN_MFG_SYNTH_FREQ_OFFSET
                        0x0801bd78     0x2  Data  Gb  mfg-token.o [1]
TOKEN_MFG_TEMP_CAL      0x0801bd6a     0x2  Data  Gb  mfg-token.o [1]
TOKEN_MULTI_NETWORK_STACK_ALTERNATE_KEY_DEFAULTS
                        0x0801bc20    0x14  Data  Gb  token-def.o [1]
TOKEN_MULTI_NETWORK_STACK_KEYS_DEFAULTS
                        0x0801bbfc    0x14  Data  Gb  token-def.o [1]
TOKEN_MULTI_NETWORK_STACK_NETWORK_MANAGEMENT_DEFAULTS
                        0x0801bc50     0x8  Data  Gb  token-def.o [1]
TOKEN_MULTI_NETWORK_STACK_NODE_DATA_DEFAULTS
                        0x0801bc10    0x10  Data  Gb  token-def.o [1]
TOKEN_MULTI_NETWORK_STACK_NONCE_COUNTER_DEFAULTS
                        0x0801bc64     0x4  Data  Gb  token-def.o [1]
TOKEN_MULTI_NETWORK_STACK_PARENT_INFO_DEFAULTS
                        0x0801bc58     0xc  Data  Gb  token-def.o [1]
TOKEN_MULTI_NETWORK_STACK_TRUST_CENTER_DEFAULTS
                        0x0801bc34    0x1c  Data  Gb  token-def.o [1]
TOKEN_STACK_ALTERNATE_KEY_DEFAULTS
                        0x0801bb84    0x14  Data  Gb  token-def.o [1]
TOKEN_STACK_ANALYSIS_REBOOT_DEFAULTS
                        0x0801bba0     0x2  Data  Gb  token-def.o [1]
TOKEN_STACK_APS_FRAME_COUNTER_DEFAULTS
                        0x0801bb80     0x4  Data  Gb  token-def.o [1]
TOKEN_STACK_BINDING_TABLE_DEFAULTS
                        0x0801bc68    0x10  Data  Gb  token-def.o [1]
TOKEN_STACK_BOOT_COUNTER_DEFAULTS
                        0x0801bb98     0x2  Data  Gb  token-def.o [1]
TOKEN_STACK_CAL_DATA_DEFAULTS
                        0x0801bbf8     0x4  Data  Gb  token-def.o [1]
TOKEN_STACK_CERTIFICATE_TABLE_DEFAULTS
                        0x0801bca0    0x5c  Data  Gb  token-def.o [1]
TOKEN_STACK_CHILD_TABLE_DEFAULTS
                        0x0801bc78     0xc  Data  Gb  token-def.o [1]
TOKEN_STACK_KEYS_DEFAULTS
                        0x0801bba4    0x14  Data  Gb  token-def.o [1]
TOKEN_STACK_KEY_TABLE_DEFAULTS
                        0x0801bc84    0x1c  Data  Gb  token-def.o [1]
TOKEN_STACK_NETWORK_MANAGEMENT_DEFAULTS
                        0x0801bbe4     0x8  Data  Gb  token-def.o [1]
TOKEN_STACK_NODE_DATA_DEFAULTS
                        0x0801bbb8    0x10  Data  Gb  token-def.o [1]
TOKEN_STACK_NONCE_COUNTER_DEFAULTS
                        0x0801bb9c     0x4  Data  Gb  token-def.o [1]
TOKEN_STACK_NVDATA_VERSION_DEFAULTS
                        0x0801bb7c     0x2  Data  Gb  token-def.o [1]
TOKEN_STACK_PARENT_INFO_DEFAULTS
                        0x0801bbec     0xc  Data  Gb  token-def.o [1]
TOKEN_STACK_TRUST_CENTER_DEFAULTS
                        0x0801bbc8    0x1c  Data  Gb  token-def.o [1]
_GenldFull              0x08019179   0x266  Code  Lc  xprintffull.o [6]
_LdtobFull              0x08018d79   0x3fa  Code  Lc  xprintffull.o [6]
_LitobFull              0x08018c63   0x10e  Code  Lc  xprintffull.o [6]
_PrintfFull             0x08018759   0x504  Code  Gb  xprintffull.o [6]
_PutcharsFull           0x080193df    0x2e  Code  Lc  xprintffull.o [6]
_SProut                 0x08002443     0xa  Code  Gb  xsprout.o [6]
__DLIB_PERTHREAD_init$$Base
                        0x00000000           --   Gb  - Linker created -
__DLIB_PERTHREAD_init$$Length
                        0x00000000           --   Gb  - Linker created -
__aeabi_cdcmple         0x0801a409          Code  Gb  DblCmpLe.o [10]
__aeabi_cdrcmple        0x0801a439          Code  Gb  DblCmpGe.o [10]
__aeabi_d2iz            0x0801a575          Code  Gb  DblToI32.o [10]
__aeabi_d2uiz           0x0801a5a1          Code  Gb  DblToI32.o [10]
__aeabi_ddiv            0x0801a921          Code  Gb  DblDiv.o [10]
__aeabi_dmul            0x0801a77d          Code  Gb  DblMul.o [10]
__aeabi_dsub            0x0801a5fd          Code  Gb  DblSub.o [10]
__aeabi_i2d             0x0801a5cd          Code  Gb  I32ToDbl.o [10]
__aeabi_ldiv0           0x0801ad39          Code  Gb  I64DivZer.o [13]
__aeabi_llsl            0x080092f1          Code  Gb  I64Shl.o [13]
__aeabi_memclr          0x0801b0fd          Code  Gb  ABImemclr.o [13]
__aeabi_memclr4         0x0801b105          Code  Gb  ABImemclr4.o [13]
__aeabi_memcpy          0x080165e5          Code  Gb  ABImemcpy.o [13]
__aeabi_memcpy4         0x08016605          Code  Gb  ABImemcpy.o [13]
__aeabi_memcpy8         0x08016605          Code  Gb  ABImemcpy.o [13]
__aeabi_memset          0x0800879d          Code  Gb  ABImemset.o [13]
__aeabi_ui2d            0x0801a5e1          Code  Gb  I32ToDbl.o [10]
__aeabi_uldivmod        0x0801a2d9          Code  Gb  I64DivMod.o [13]
__iar_Dnorm             0x0801a3c7    0x42  Code  Gb  xdnorm.o [10]
__iar_Dscale            0x0801a469   0x10c  Code  Gb  xdscale.o [10]
__iar_Memchr            0x0801a281          Code  Gb  memchr.o [13]
__iar_Memset            0x0800879d          Code  Gb  ABImemset.o [13]
__iar_Memset4_word      0x0801b11d          Code  Gb  ABImemset48.o [13]
__iar_Memset8_word      0x0801b11d          Code  Gb  ABImemset48.o [13]
__iar_Memset_word       0x080087a5          Code  Gb  ABImemset.o [13]
__iar_Strchr            0x0801a269          Code  Gb  strchr.o [13]
__iar_d2uiz             0x0801a5ad          Code  Gb  DblToI32.o [10]
__iar_dadd              0x0801ad3d          Code  Gb  DblAdd.o [10]
__iar_dsub              0x0801a611          Code  Gb  DblSub.o [10]
__iar_dsubStart         0x0801a623          Code  Gb  DblSub.o [10]
__iar_ui2d              0x0801a5e5          Code  Gb  I32ToDbl.o [10]
__vector_table          0x08002100    0x90  Data  Gb  cstartup-iar-common.o [1]
_basePriIsDisabled      0x08002a09          Code  Gb  spmr.o [8]
_clearPriMask           0x080076dd          Code  Gb  spmr.o [8]
_disableBasePri         0x08002431          Code  Gb  spmr.o [8]
_enableBasePri          0x08007051          Code  Gb  spmr.o [8]
_executeBarrierInstructions
                        0x080076c5          Code  Gb  spmr.o [8]
_macTransmitBuffer      0x20002ebc    0x80  Data  Gb  mac.o [16]
_setPriMask             0x080076c1          Code  Gb  spmr.o [8]
_writeBasePri           0x0800243d          Code  Gb  spmr.o [8]
abs                     0x08006fff     0x8  Code  Gb  abs.o [6]
actionTimer             0x20002695     0x1  Data  Gb  bootload-utils.o [1]
adcCalibrated           0x20002a5b     0x1  Data  Lc  adc.o [1]
adcConfig               0x20002a6c     0x8  Data  Lc  adc.o [1]
adcData                 0x20002a5c     0x2  Data  Lc  adc.o [1]
adcPendingConversion    0x20002a59     0x1  Data  Lc  adc.o [1]
adcPendingRequests      0x20002a58     0x1  Data  Lc  adc.o [1]
adcReadingValid         0x20002a5a     0x1  Data  Lc  adc.o [1]
adcReadings             0x20002a64     0x8  Data  Lc  adc.o [1]
adcStaticConfig         0x20002a60     0x2  Data  Lc  adc.o [1]
adcTemp                 0x200027fc     0x4  Data  Gb  sensor.o [1]
adcTempUnit             0x20002800     0x4  Data  Gb  sensor.o [1]
addMobileChild          0x0800bd6b    0x9a  Code  Lc  child.o [16]
addMulticastGroup       0x0800c849    0x16  Code  Gb  sensor.o [1]
addToApplicationQueue   0x0800a62f    0x32  Code  Lc  network.o [16]
addressIndexIsActive    0x08016527    0x2e  Code  Lc  aps-retry.o [16]
addressMatchingEnabled  0x20002995     0x1  Data  Lc  phy-common.o [16]
adjustLna               0x08004821     0x8  Code  Lc  analogue-lna.o [16]
adjustVco               0x080044e5    0x22  Code  Lc  analogue-vco.o [16]
aesHashNextBlock        0x0801a10d    0x36  Code  Lc  aes-mmo.o [14]
age                     0x20002e2d     0x1  Data  Lc  broadcast.o [16]
allowIdling             0x20002fdb     0x1  Data  Lc  event-control.o [16]
appAddJitForAllChildren
                        0x0800af17    0x66  Code  Gb  common.o [1]
appSendJitToChild       0x0800af7d    0x54  Code  Gb  common.o [1]
appSerial               0x20002696     0x1  Data  Gb  bootload-utils.o [1]
appSetLEDsToInitialState
                        0x0800c289    0x18  Code  Gb  sensor.o [1]
appSetLEDsToRunningState
                        0x0800c2a1    0x12  Code  Gb  sensor.o [1]
applicationProcessIncomingData
                        0x08012ca3   0x178  Code  Lc  application-support.o [16]
apsCommandBaseSizes     0x080140ac    0x10  Data  Lc  packet-validate.o [12]
apsCommandPacketIsValid
                        0x08013fef    0x4e  Code  Lc  packet-validate.o [12]
apsPacketIsValid        0x08013f79    0x6a  Code  Lc  packet-validate.o [12]
arePageCountersOkay     0x08005921    0x3e  Code  Lc  sim-eeprom-internal.o [8]
authBlock               0x200026ac    0x10  Data  Gb  bootload-utils.o [1]
autoAckEnabled          0x20002996     0x1  Data  Lc  phy-common.o [16]
baseHeaderLength        0x08008c70    0x10  Data  Lc  packet-header.o [16]
baudSettings            0x08007940    0x28  Data  Gb  uart.o [1]
biasTrim                0x20002974     0x2  Data  Gb  clocks.o [8]
blMode                  0x20002691     0x1  Data  Gb  bootload-utils.o [1]
blState                 0x20002690     0x1  Data  Gb  bootload-utils.o [1]
blacklistedIdBytes      0x200029ad     0x1  Data  Lc  random-id.o [16]
blacklistedIds          0x200029ae     0x1  Data  Lc  random-id.o [16]
boostTxPowerMax         0x200028dc     0x8  Data  Gb  analogue.o [16]
bootloadBuffer          0x20002af8    0x48  Data  Gb  bootload-utils.o [1]
bootloadInProgressChildId
                        0x20002b42     0x2  Data  Gb  common.o [1]
bootloadInProgressEui   0x20002b44     0x8  Data  Gb  common.o [1]
bootloadMyNeighborRouter
                        0x0800b185    0x3a  Code  Gb  common.o [1]
bootloadMySleepyChild   0x0800b11f    0x66  Code  Gb  common.o [1]
bootloadSendAuthChallenge
                        0x08015251    0xb0  Code  Lc  bootload-utils.o [1]
bootloadSendAuthResponse
                        0x08015301    0x78  Code  Lc  bootload-utils.o [1]
bootloadSendImage       0x080159d3    0xaa  Code  Lc  bootload-utils.o [1]
bootloadSerial          0x20002697     0x1  Data  Gb  bootload-utils.o [1]
bootloadUtilInit        0x0801518d    0x1a  Code  Gb  bootload-utils.o [1]
bootloadUtilLaunchRequestHandler
                        0x0800c31d     0x4  Code  Gb  sensor.o [1]
bootloadUtilQueryResponseHandler
                        0x0800c2e9    0x34  Code  Gb  sensor.o [1]
bootloadUtilSendAuthResponse
                        0x080153eb    0x22  Code  Gb  bootload-utils.o [1]
bootloadUtilSendQuery   0x08015379    0x2e  Code  Gb  bootload-utils.o [1]
bootloadUtilSendRequest
                        0x080151a7    0xaa  Code  Gb  bootload-utils.o [1]
bootloadUtilStartBootload
                        0x080153a7    0x38  Code  Gb  bootload-utils.o [1]
bootloadUtilTick        0x0801540d    0xd2  Code  Gb  bootload-utils.o [1]
bothTokSerialRegId      0x08002e98     0x8  Data  Gb  analogue-cell-bias.o [16]
broadcastEui64          0x2000269c     0x8  Data  Gb  bootload-utils.o [1]
broadcastMessageSent    0x08016429    0xd2  Code  Lc  aps-retry.o [16]
button0State            0x20002fc4     0x1  Data  Gb  button.o [1]
button1State            0x20002fc5     0x1  Data  Gb  button.o [1]
buttonOnePress          0x200027f5     0x1  Data  Gb  sensor.o [1]
buttonZeroPress         0x200027f4     0x1  Data  Gb  sensor.o [1]
cacheBuffer             0x20002a30     0x1  Data  Lc  token-cache.o [16]
cachingNetworkIndex     0x20002a31     0x1  Data  Lc  token-cache.o [16]
calAdcTempOffset        0x20002fdf     0x1  Data  Lc  phy.o [16]
calAdcTempOffsetValid   0x20002fde     0x1  Data  Lc  phy.o [16]
calDisableAdc           0x08004a7b     0xc  Code  Gb  caladc.o [8]
calModDacWithPaEnableMask
                        0x20002988     0x2  Data  Lc  analogue-mod-dac.o [16]
calModDacWithSpreading  0x20002986     0x1  Data  Lc  analogue-mod-dac.o [16]
calReadAdcAtestAWithSpreading
                        0x080045c7    0xb6  Code  Lc  analogue-mod-dac.o [16]
calReadAdcBlocking      0x08004a03    0x6c  Code  Gb  caladc.o [8]
calStartAdcConversion   0x080049cd    0x36  Code  Gb  caladc.o [8]
calStartAndReadAdc      0x08004a6f     0xc  Code  Gb  caladc.o [8]
ccaAttempt              0x2000299e     0x1  Data  Lc  phy-common.o [16]
challenge               0x20002699     0x1  Data  Lc  bootload-utils.o [1]
changeToChannel         0x200029e8     0x1  Data  Lc  zdo-channel.o [16]
channelCache            0x20002b71     0x1  Data  Lc  form-and-join.o [1]
channelMaskCache        0x20002b78     0x4  Data  Lc  form-and-join.o [1]
checkButtonEvents       0x0800c579    0xcc  Code  Gb  sensor.o [1]
checkForMovedChild      0x08009f67    0x22  Code  Lc  network.o [16]
checkMaybeSetParentToken
                        0x0800f765    0x4a  Code  Lc  association.o [16]
childIsExpectingMessageBitField
                        0x20002a50     0x8  Data  Lc  mac-indirect.o [16]
childJitMessage         0x0800fcd9    0xca  Code  Lc  jit.o [16]
childPolledBitField     0x20002a48     0x8  Data  Lc  mac-indirect.o [16]
cleanupEvent            0x20002764     0x8  Data  Lc  form-and-join-node-adapter.o [1]
cleanupEventHandler     0x08016fe7     0xc  Code  Lc  form-and-join-node-adapter.o [1]
clearNetworkSecurityFromMessage
                        0x0800e89f    0x28  Code  Lc  association.o [16]
clear_screen            0x08016e9f    0x38  Code  Gb  lcd.o [1]
continueScanRequest     0x080176e1    0x56  Code  Lc  zdo-channel.o [16]
copyPayload             0x08016c4d    0x40  Code  Lc  alarm.o [3]
copyTokensToOtherPage   0x08005d0f   0x1bc  Code  Lc  sim-eeprom-internal.o [8]
countIncremarks         0x080060f9    0x48  Code  Lc  sim-eeprom-internal.o [8]
createAndStoreJitMessage
                        0x0800aeb5    0x62  Code  Gb  common.o [1]
cryptInternal           0x080183a5   0x25c  Code  Lc  aps-encryption.o [14]
cstackMemory            0x20001f38   0x758  Data  Gb  cstartup-iar-common.o [1]
currentBroadcastLength  0x20002fe6     0x1  Data  Lc  alarm.o [3]
currentDuration         0x200026be     0x2  Data  Gb  buzzer.o [1]
currentJitFlag          0x2000290c     0x2  Data  Lc  jit.o [16]
currentOTABlock         0x20002694     0x1  Data  Gb  bootload-utils.o [1]
currentReceiveChannel   0x20002ced     0x1  Data  Lc  phy.o [16]
currentRetriesRemaining
                        0x20002692     0x1  Data  Gb  bootload-utils.o [1]
currentTune             0x200026c0     0x4  Data  Gb  buzzer.o [1]
dataBuffer              0x2000288c    0x14  Data  Gb  sensor.o [1]
dataCache               0x20002760     0x1  Data  Lc  form-and-join-node-adapter.o [1]
dataContents            0x20002b74     0x4  Data  Lc  form-and-join.o [1]
dataMode                0x200027f2     0x1  Data  Gb  sensor.o [1]
debugChannel            0x20002ff0    0x10  Data  Lc  debug-jtag.o [16]
debugTraceOn            0x20002fda     0x1  Data  Lc  debug.o [16]
decodeShortDestination  0x0800db0d    0x46  Code  Lc  mac-header.o [16]
deferredPanChange       0x0800fb03    0x3c  Code  Lc  management.o [16]
delay                   0x08016ded     0xc  Code  Gb  lcd.o [1]
delayCount              0x20002f4c     0x1  Data  Lc  retry.o [16]
deviceIsCoordinator     0x20002994     0x1  Data  Lc  phy-common.o [16]
display_graphic_8x16    0x08016ee7    0x26  Code  Gb  lcd.o [1]
display_string_8x16     0x08016f23    0x34  Code  Gb  lcd.o [1]
div                     0x0801ab67     0xe  Code  Gb  div.o [6]
dropJoinBeacon          0x0800e3e7    0x1a  Code  Lc  association.o [16]
edCcaThreshold          0x20002997     0x1  Data  Lc  phy-common.o [16]
emActiveAlwaysOnNetworkFound
                        0x080069db     0x4  Code  Gb  ember-multi-network-stub.o [11]
emActiveScanDuration    0x20002935     0x1  Data  Gb  association.o [16]
emActiveTaskCount       0x20002fdc     0x1  Data  Lc  event-control.o [16]
emAddApsFrame           0x08011ee7    0xe0  Code  Gb  zigbee-packet-header.o [16]
emAddBeaconPayload      0x0800f3fd    0x92  Code  Gb  association.o [16]
emAddBlacklistedId      0x080142f3    0x7e  Code  Gb  random-id.o [16]
emAddBroadcastTableEntry
                        0x08010ab7    0x4c  Code  Gb  broadcast.o [16]
emAddCurrentNetworkToPollingQueue
                        0x08006a91     0x2  Code  Gb  ember-multi-network-stub.o [11]
emAddNeighborGuaranteed
                        0x080111a9    0x66  Code  Gb  neighbor.o [16]
emAddPendingAckedMessage
                        0x08015d81    0x5e  Code  Gb  aps-retry.o [16]
emAddRejoinedChild      0x0800b9ff    0xe4  Code  Gb  child.o [16]
emAddTrustCenterRoute   0x080121ed    0x24  Code  Gb  route-discovery.o [16]
emAddTunnelledApsHeader
                        0x0801822d    0x3e  Code  Gb  trust-center-util.o [14]
emAddUnicastTableEntry  0x08010de5    0x26  Code  Gb  unicast-table.o [16]
emAddressTable          0x20002740     0x4  Data  Gb  ember-configuration.o [1]
emAddressTableSize      0x2000273c     0x1  Data  Gb  ember-configuration.o [1]
emAesEncrypt            0x08006fdd    0x22  Code  Gb  aes.o [16]
emAgeBlacklistedIds     0x080143a7    0x1c  Code  Gb  random-id.o [16]
emAgeBroadcastTable     0x08010a5d    0x3e  Code  Gb  broadcast.o [16]
emAgeChildren           0x08015011   0x108  Code  Gb  child-aging.o [16]
emAgeChildrenAllNetworks
                        0x08015119    0x22  Code  Gb  child-aging.o [16]
emAgeRouteTables        0x0801071b    0xf2  Code  Gb  route-table.o [16]
emAllowRelay            0x200026ec     0x1  Data  Gb  ember-configuration.o [1]
emAmMulticastMember     0x08014f8f    0x48  Code  Gb  address-table.o [16]
emAmNetworkManager      0x0800fb81    0x26  Code  Gb  management.o [16]
emAnyChildHasFlagsSet   0x0800b8d9    0x2a  Code  Gb  child.o [16]
emAppZdoConfigurationFlags
                        0x20002fcb     0x1  Data  Gb  ember-configuration.o [1]
emAppendToLinkedBuffers
                        0x08007e03    0x3c  Code  Gb  packet-buffer.o [16]
emApplicationCheckIncomingQueue
                        0x08012b0b    0x2e  Code  Gb  application-support.o [16]
emApplicationProcessIncoming
                        0x08012b39   0x16a  Code  Gb  application-support.o [16]
emApplicationProcessIncomingAck
                        0x08015ddf    0xe6  Code  Gb  aps-retry.o [16]
emApplicationSecurityMessageHandler
                        0x08013157   0x1be  Code  Gb  aps-security.o [14]
emApsBaseFrameSize      0x08011d53    0x30  Code  Gb  zigbee-packet-header.o [16]
emApsCrypt              0x08018601    0x30  Code  Gb  aps-encryption.o [14]
emApsExtendedHeaderSize
                        0x08011d39    0x1a  Code  Gb  zigbee-packet-header.o [16]
emApsFrameSize          0x08011d83    0x38  Code  Gb  zigbee-packet-header.o [16]
emApsFrameToApsStruct   0x08011ddb   0x10c  Code  Gb  zigbee-packet-header.o [16]
emApsHeaderSize         0x08011d1d    0x1c  Code  Gb  zigbee-packet-header.o [16]
emApsPurge              0x08015d31    0x2e  Code  Gb  aps-retry.o [16]
emApsUnicastMessageData
                        0x20002748     0x4  Data  Gb  ember-configuration.o [1]
emAreKeysAuthorizedByDefault
                        0x08017579     0x4  Code  Gb  cbke-crypto-engine-stub.o [5]
emAssociationHandler    0x0800ed0b   0x21e  Code  Gb  association.o [16]
emAssociationInProgress
                        0x080069d7     0x4  Code  Gb  ember-multi-network-stub.o [11]
emAssociationRequestNotSent
                        0x0800eff7     0xa  Code  Gb  association.o [16]
emAssumeSymmetricLink   0x0801120f    0x28  Code  Gb  neighbor.o [16]
emAuthenticatedRoutingOnly
                        0x20002fec     0x1  Data  Gb  high-security-stub.o [14]
emAuxiliaryZdoRequestHandler
                        0x080198b9   0x7c0  Code  Gb  zigbee-device.o [16]
emAvailableMemory       0x20000000   0x570  Data  Gb  ember-configuration.o [1]
emAvailableStackBuffer  0x200028f8     0x1  Data  Gb  zigbee-stack.o [16]
emBindingFlags          0x20002738     0x4  Data  Gb  ember-configuration.o [1]
emBindingRemoteNode     0x20002734     0x4  Data  Gb  ember-configuration.o [1]
emBroadcastAgeCutoffIndexes
                        0x20002e30     0x2  Data  Gb  broadcast.o [16]
emBroadcastAlarmData    0x20002704     0x4  Data  Gb  ember-configuration.o [1]
emBroadcastAlarmDataSize
                        0x20002fc7     0x1  Data  Gb  ember-configuration.o [1]
emBroadcastHead         0x20002e2c     0x1  Data  Gb  broadcast.o [16]
emBroadcastTable        0x20002e34    0x5c  Data  Gb  broadcast.o [16]
emBroadcastTableIsFull  0x08010a9b    0x1c  Code  Gb  broadcast.o [16]
emCalPadsEvent          0x20002e90     0x8  Data  Gb  cal-pads.o [16]
emCalPadsEventHandler   0x0801b189    0x18  Code  Gb  cal-pads.o [16]
emCalculateMic          0x08011605   0x10a  Code  Gb  crypto.o [16]
emCallCounterHandler    0x08006aab     0x4  Code  Gb  ember-multi-network-stub.o [11]
emCallIncomingMessageHandler
                        0x08017019    0xb0  Code  Gb  zigbee-dispatch.o [16]
emCallStackStatusHandler
                        0x08006aa7     0x4  Code  Gb  ember-multi-network-stub.o [11]
emCallZigbeeKeyEstablishmentHandler
                        0x08006aa3     0x4  Code  Gb  ember-multi-network-stub.o [11]
emCancelJitMessage      0x08009113    0x28  Code  Gb  mac-arbiter.o [16]
emCapabilityBytes       0x0800bf24     0x8  Data  Gb  child.o [16]
emCbkeIsIdle            0x0801756f     0x4  Code  Gb  cbke-crypto-engine-stub.o [5]
emCbkeTick              0x08017573     0x2  Code  Gb  cbke-crypto-engine-stub.o [5]
emChannelChangeEvent    0x200029f4     0x8  Data  Gb  zdo-channel.o [16]
emChannelChangeEventHandler
                        0x08017885    0x44  Code  Gb  zdo-channel.o [16]
emChannelSettings       0x08002978    0x40  Data  Gb  analogue.o [16]
emCheckAdditionalPendingDataIsr
                        0x08006459    0x50  Code  Gb  mac-indirect.o [16]
emCheckAvailableMemory  0x080085e5     0x2  Code  Gb  ember-configuration.o [1]
emCheckChannelStatus    0x08017581    0x84  Code  Gb  zdo-channel.o [16]
emCheckIncomingFrameCounter
                        0x08013cdf    0x20  Code  Gb  zigbee-neighbor.o [16]
emCheckNetworkManagerId
                        0x0800dfc1     0x4  Code  Gb  zll-stubs.o [17]
emCheckOrSetTrustCenterEui64
                        0x080168fd    0x42  Code  Gb  aps-keys.o [14]
emCheckRadioEvent       0x20002e98     0x8  Data  Gb  mac-em250.o [16]
emCheckRadioEventHandler
                        0x08006ec9    0x12  Code  Gb  mac-em250.o [16]
emChildExtendedTimeout  0x08014f09    0x22  Code  Gb  address-table.o [16]
emChildIdTable          0x200026f0     0x4  Data  Gb  ember-configuration.o [1]
emChildInit             0x0800b7f9    0x84  Code  Gb  child.o [16]
emChildStatus           0x200026f8     0x4  Data  Gb  ember-configuration.o [1]
emChildTimers           0x200026fc     0x4  Data  Gb  ember-configuration.o [1]
emChooseRandomNeighbor  0x080113db    0x6c  Code  Gb  neighbor.o [16]
emClearSecurityData     0x08013b5d    0x1a  Code  Gb  aps-security.o [14]
emClearUnicastTable     0x08010e0b     0xa  Code  Gb  unicast-table.o [16]
emCopyToNormalizedBuffers
                        0x08007d9f    0x64  Code  Gb  packet-buffer.o [16]
emCostDivision          0x08003631     0x8  Code  Gb  phy-common.o [16]
emCostDivisions         0x08003e70     0x8  Data  Gb  phy-common.o [16]
emCsmaTransmit          0x08006d99    0x2e  Code  Gb  mac-em250.o [16]
emCurrentApsStruct      0x20002cbc     0x4  Data  Gb  zigbee-dispatch.o [16]
emCurrentBindingIndex   0x20002fd5     0x1  Data  Gb  zigbee-dispatch.o [16]
emCurrentLqi            0x20002fe9     0x1  Data  Gb  network.o [16]
emCurrentMessageStatus  0x20002cb8     0x1  Data  Gb  zigbee-dispatch.o [16]
emCurrentNetwork        0x20002e1c     0x4  Data  Gb  ember-multi-network-stub.o [11]
emCurrentRadioNetwork   0x20002e20     0x4  Data  Gb  ember-multi-network-stub.o [11]
emCurrentRadioNetworkEvent
                        0x20002e0c     0x8  Data  Gb  ember-multi-network-stub.o [11]
emCurrentRadioNetworkHandler
                        0x0800699b    0x22  Code  Gb  ember-multi-network-stub.o [11]
emCurrentRssi           0x20002fea     0x1  Data  Gb  network.o [16]
emCurrentSender         0x20002cba     0x2  Data  Gb  zigbee-dispatch.o [16]
emCurrentSenderEui64    0x20002cc0     0x4  Data  Gb  zigbee-dispatch.o [16]
emCurrentZdoRequestStatus
                        0x20002fd9     0x1  Data  Gb  application-support.o [16]
emCustomMacFilterMatchList
                        0x20002fb4     0x4  Data  Gb  mac-header.o [16]
emDebugAddInitialFraming
                        0x08008285    0x18  Code  Gb  debug-jtag.o [16]
emDebugBinaryFormat     0x08004bd7    0x10  Code  Gb  debug.o [16]
emDebugClearStats       0x08004ccf     0xa  Code  Gb  debug.o [16]
emDebugInit             0x0800821d    0x22  Code  Gb  debug-jtag.o [16]
emDebugInternalBinaryPrintf
                        0x08004ce7   0x174  Code  Lc  debug.o [16]
emDebugMemoryDump       0x08004c37    0x36  Code  Lc  debug.o [16]
emDebugPowerUp          0x0800823f    0x42  Code  Gb  debug-jtag.o [16]
emDebugProcessIncoming  0x08004e6b    0xc2  Code  Gb  debug.o [16]
emDebugReceiveTick      0x08004b8d    0x40  Code  Gb  debug.o [16]
emDebugResetInfo        0x08004be7    0x50  Code  Gb  debug.o [16]
emDebugRxQueue          0x20002944     0x4  Data  Gb  debug.o [16]
emDebugStats            0x08004cd9     0xe  Code  Gb  debug.o [16]
emDecrementPanConflictMeter
                        0x0800fa09     0xc  Code  Gb  management.o [16]
emDefaultSecurityLevel  0x20002755     0x1  Data  Gb  ember-configuration.o [1]
emDelayDeviceAnnouncement
                        0x080178f5     0x4  Code  Gb  high-security-stub.o [14]
emDeleteRouteTableEntry
                        0x08010841    0x14  Code  Gb  route-table.o [16]
emDequePollingNetwork   0x08006a93     0x4  Code  Gb  ember-multi-network-stub.o [11]
emDescriptorCapability  0x20002a38     0x1  Data  Gb  zigbee-device.o [16]
emDetectIdConflict      0x080141f7    0x98  Code  Gb  random-id.o [16]
emDeviceJoiningSecurityHandler
                        0x08017de9    0xd6  Code  Gb  trust-center-util.o [14]
emDiscoveryTable        0x20002710     0x4  Data  Gb  ember-configuration.o [1]
emDiscoveryTableSize    0x20002714     0x1  Data  Gb  ember-configuration.o [1]
emDoesSecurityPolicyAllowAppKeyRequests
                        0x0801757d     0x4  Code  Gb  cbke-crypto-engine-stub.o [5]
emDroppedAckStallWorkaround
                        0x080035f9    0x38  Code  Gb  phy-common.o [16]
emDsaSignAndSendMessage
                        0x08017575     0x4  Code  Gb  cbke-crypto-engine-stub.o [5]
emEnableApplicationCurrentNetwork
                        0x080069c9     0x2  Code  Gb  ember-multi-network-stub.o [11]
emEnableRadioNetworkSwitch
                        0x080069bd     0x2  Code  Gb  ember-multi-network-stub.o [11]
emEndDeviceChildCount   0x200028e8     0x1  Data  Gb  child.o [16]
emEntityAuthenticationEvent
                        0x20002ea0     0x8  Data  Gb  high-security-stub.o [14]
emEntityAuthenticationEventHandler
                        0x080178f1     0x2  Code  Gb  high-security-stub.o [14]
emEraseChild            0x0800bcc3    0x28  Code  Gb  child.o [16]
emEraseChildTable       0x0800bceb    0x40  Code  Gb  child.o [16]
emEraseChildTableOnJoin
                        0x20002934     0x1  Data  Gb  association.o [16]
emEventControlGetRemainingMS
                        0x08008cfd    0x28  Code  Gb  event-control.o [16]
emEventControlSetActive
                        0x08008ca5    0x16  Code  Gb  event-control.o [16]
emEventControlSetDelayMS
                        0x08008cbb     0xe  Code  Gb  event-control.o [16]
emEventControlSetDelayMinutes
                        0x08008ceb    0x12  Code  Gb  event-control.o [16]
emEventControlSetDelayQS
                        0x08008cc9    0x10  Code  Gb  event-control.o [16]
emExtendJoinTimeout     0x0800e3b5    0x32  Code  Gb  association.o [16]
emFastLinkStatusCount   0x20002fe7     0x1  Data  Gb  neighbor.o [16]
emFetchInt32u           0x0800df55    0x28  Code  Gb  byte-utilities.o [16]
emFillRouteCommandData  0x0801217b    0x6a  Code  Gb  route-discovery.o [16]
emFindAddressByEui64    0x08014dfb    0x68  Code  Gb  address-table.o [16]
emFindAddressByNodeId   0x08014e63    0xa6  Code  Gb  address-table.o [16]
emFindBroadcastTableEntry
                        0x08010a1f     0x4  Code  Gb  broadcast.o [16]
emFindChild             0x0800bb09    0x1c  Code  Gb  child.o [16]
emFindChildIndex        0x0800b963     0xa  Code  Gb  child.o [16]
emFindEmptyDiscoveryTableEntry
                        0x080108a3     0xa  Code  Gb  route-table.o [16]
emFindMulticastBinding  0x0801737b    0x54  Code  Gb  binding-table.o [4]
emFindNeighborByEui64   0x08010ead    0x22  Code  Gb  neighbor.o [16]
emFindNeighborIndexByEui64
                        0x08010ecf    0x38  Code  Gb  neighbor.o [16]
emFindOrAddNeighbor     0x080110f7    0x70  Code  Gb  neighbor.o [16]
emFindOrCreateRouteTableEntry
                        0x080108ad    0x78  Code  Gb  route-table.o [16]
emFindRouteTableEntry   0x08010837     0xa  Code  Gb  route-table.o [16]
emFindUnicastBinding    0x080173d5    0x8c  Code  Gb  binding-table.o [4]
emFindZdoPayload        0x08017bdd    0x28  Code  Gb  zigbee-device-util.o [16]
emFinishAdcTempReading  0x08003463    0x58  Code  Gb  phy.o [16]
emFinishCalibrateCurrentChannel
                        0x080025a5   0x218  Code  Gb  analogue.o [16]
emFinishJoinFailure     0x0800e51d    0x2c  Code  Gb  association.o [16]
emFinishRadioSetChannel
                        0x080027cd    0x5c  Code  Gb  analogue.o [16]
emForgetBindingShortId  0x08017219    0x46  Code  Gb  binding-table.o [4]
emForgetShortId         0x08014d8f    0x3a  Code  Gb  address-table.o [16]
emFragmentDelayMs       0x20002fc9     0x1  Data  Gb  ember-configuration.o [1]
emFrameCounterIndex     0x08013c4d    0x24  Code  Gb  zigbee-neighbor.o [16]
emFrameCounterIndexFromEui64
                        0x08013d0d    0xc2  Code  Gb  zigbee-neighbor.o [16]
emFrameCountersTable    0x20002730     0x4  Data  Gb  ember-configuration.o [1]
emGetActiveAlwaysOnNetworkIndex
                        0x080069df    0x1a  Code  Gb  ember-multi-network-stub.o [11]
emGetActiveCoordinatorOrRouterNetworkIndex
                        0x080069f9    0x1c  Code  Gb  ember-multi-network-stub.o [11]
emGetApplicationPayload
                        0x08011a5d    0x96  Code  Gb  zigbee-packet-header.o [16]
emGetApsFrameCounter    0x080114eb     0x8  Code  Gb  crypto.o [16]
emGetChildCapabilities  0x0800bbd3     0xe  Code  Gb  child.o [16]
emGetCurrentNetworkIndex
                        0x080069cb     0x4  Code  Gb  ember-multi-network-stub.o [11]
emGetCurrentRadioNetworkIndex
                        0x080069cf     0x4  Code  Gb  ember-multi-network-stub.o [11]
emGetKeyFromInstallCode
                        0x0801865d     0x4  Code  Gb  install-code-stub.o [9]
emGetKeyTableEntry      0x08018665     0x4  Code  Gb  aps-keys-full-stub.o [15]
emGetLinkKey            0x0801693f   0x100  Code  Gb  aps-keys.o [14]
emGetLocalCapabilities  0x0800f737    0x16  Code  Gb  association.o [16]
emGetMacDataAddress     0x08008ac9    0x26  Code  Gb  packet-header.o [16]
emGetMacTimer           0x080033f9     0x6  Code  Gb  phy.o [16]
emGetNetworkKeys        0x08013b3d    0x20  Code  Gb  aps-security.o [14]
emGetNetworkManagementState
                        0x0800f887    0x28  Code  Gb  management.o [16]
emGetNextScanChannel    0x0800dfa7     0x6  Code  Gb  zll-stubs.o [17]
emGetNwkUpdateId        0x0800f8af    0x10  Code  Gb  management.o [16]
emGetPhyRadioChannel    0x08002839     0x6  Code  Gb  analogue.o [16]
emGetPhyRadioPower      0x0800283f     0x8  Code  Gb  analogue.o [16]
emGetPreconfiguredKey   0x0801686f    0x1c  Code  Gb  aps-keys.o [14]
emGetRadioNodeId        0x08006a63     0x8  Code  Gb  ember-multi-network-stub.o [11]
emGetRadioPanId         0x08006a6b     0x8  Code  Gb  ember-multi-network-stub.o [11]
emGetSecurityFrameCounter
                        0x080114c3     0xa  Code  Gb  crypto.o [16]
emGetTempFromAdc        0x080034bb    0x10  Code  Gb  phy.o [16]
emGetTrustCenterEui64   0x08016897    0x3c  Code  Gb  aps-keys.o [14]
emGetZigbeeBinding      0x08017461    0x16  Code  Gb  binding-table.o [4]
emGetZigbeeEventNetworkIndex
                        0x080069c1     0x4  Code  Gb  ember-multi-network-stub.o [11]
emGoToNextScanChannel   0x0800dfad     0x4  Code  Gb  zll-stubs.o [17]
emHandleBindUnbindRequests
                        0x0801ab75    0x9c  Code  Gb  zdo-binding-table.o [4]
emHandleBindingTableRequest
                        0x0801ac1d   0x108  Code  Gb  zdo-binding-table.o [4]
emHandleChildIdConflict
                        0x080142b9    0x3a  Code  Gb  random-id.o [16]
emHandleEndDeviceBindRequest
                        0x0801a105     0x4  Code  Gb  end-device-bind-stub.o [7]
emHandleLeaveCommand    0x080146af    0xe4  Code  Gb  leave.o [16]
emHandleNwkUpdateRequest
                        0x08017605    0xdc  Code  Gb  zdo-channel.o [16]
emHandleRouteCommand    0x080123a5   0x2f8  Code  Gb  route-discovery.o [16]
emHandleRouteError      0x08014449    0x8a  Code  Gb  route-error.o [16]
emHandleSleepyRequest   0x08012eaf   0x108  Code  Gb  application-support.o [16]
emHaveFullZdo           0x200029fe     0x1  Data  Gb  zigbee-device-util.o [16]
emHavePendingRetryMessages
                        0x08010c95     0xa  Code  Gb  retry.o [16]
emHaveTrustCenterLinkKey
                        0x08016a53    0x18  Code  Gb  aps-keys.o [14]
emHaveUnicastAlarmAck   0x08016c11    0x3c  Code  Gb  alarm.o [3]
emHeaderApsPayloadIndex
                        0x08011dc3    0x18  Code  Gb  zigbee-packet-header.o [16]
emHeaderGetInt16u       0x08008a2d    0x12  Code  Gb  packet-header.o [16]
emHeaderGetInt8u        0x08008a63     0xc  Code  Gb  packet-header.o [16]
emHeaderGetNetworkIndex
                        0x08008aad     0xa  Code  Gb  packet-header.o [16]
emHeaderMacInfoField    0x08008a99     0x4  Code  Gb  packet-header.o [16]
emHeaderNetworkPayloadIndex
                        0x08011cbd    0x24  Code  Gb  zigbee-packet-header.o [16]
emHeaderSetInt16u       0x08008a3f    0x16  Code  Gb  packet-header.o [16]
emHeaderSetInt8u        0x08008a55     0xe  Code  Gb  packet-header.o [16]
emHeaderSetMacInfoField
                        0x08008a9d     0x6  Code  Gb  packet-header.o [16]
emHeaderSetStackPrivate
                        0x08008ab7    0x10  Code  Gb  packet-header.o [16]
emHighSecurityModeSupported
                        0x0801bab3     0x1  Data  Gb  aps-skke-stub.o [14]
emHmacAesHash           0x080186f5    0x62  Code  Gb  hmac.o [14]
emHoldMessageBuffer     0x08007c07    0x1c  Code  Gb  packet-buffer.o [16]
emInInitialBroadcastTimeout
                        0x20002e2e     0x1  Data  Gb  broadcast.o [16]
emInInitialRouteRequestTimeout
                        0x20002fc1     0x1  Data  Gb  route-table.o [16]
emInUseAsNextHop        0x080106eb    0x30  Code  Gb  route-table.o [16]
emIncomingApsFrameCounters
                        0x20002750     0x4  Data  Gb  ember-configuration.o [1]
emInitEui64             0x080076a9    0x18  Code  Gb  eui64.o [16]
emInitializeAddressTable
                        0x08014c25    0x18  Code  Gb  address-table.o [16]
emInitializeAlarms      0x08016b99    0x34  Code  Gb  alarm.o [3]
emInitializeBindingTable
                        0x08017515    0x46  Code  Gb  binding-table.o [4]
emInitializeBroadcast   0x08010b03    0x20  Code  Gb  broadcast.o [16]
emInitializeCbke        0x0801756d     0x2  Code  Gb  cbke-crypto-engine-stub.o [5]
emInitializeChild       0x0800b96d    0x92  Code  Gb  child.o [16]
emInitializeIdAssignment
                        0x080140f5    0x58  Code  Gb  random-id.o [16]
emInitializeRouteTableEntry
                        0x08010629     0xa  Code  Gb  route-table.o [16]
emInitializeTableRouting
                        0x08010633    0x4e  Code  Gb  route-table.o [16]
emInitializeTrustCenterSecurity
                        0x08013b7f    0x1e  Code  Gb  aps-security.o [14]
emIsBlacklistedId       0x08014371    0x36  Code  Gb  random-id.o [16]
emIsBufferSizeOk        0x08011b5b    0x12  Code  Gb  zigbee-packet-header.o [16]
emIsConcentrator        0x080109a1    0x26  Code  Gb  route-table.o [16]
emIsCurrentNetworkStackEmpty
                        0x080069c5     0x4  Code  Gb  ember-multi-network-stub.o [11]
emIsEndDeviceChild      0x0800bbbb    0x12  Code  Gb  child.o [16]
emIsInUnicastTable      0x08010dbd    0x28  Code  Gb  unicast-table.o [16]
emIsMacIdle             0x0800aa69     0xc  Code  Gb  mac.o [16]
emIsMobileJoinRequest   0x0800a559    0x4c  Code  Lc  network.o [16]
emIsNetworkAlwaysOn     0x08006a2d     0xe  Code  Gb  ember-multi-network-stub.o [11]
emIsNetworkJoined       0x08006a15    0x18  Code  Gb  ember-multi-network-stub.o [11]
emIsNodeInBroadcastTable
                        0x08010a23    0x10  Code  Gb  broadcast.o [16]
emIsNodeInRoutingTables
                        0x08010925    0x1a  Code  Gb  route-table.o [16]
emIsNullKey             0x08013b77     0x8  Code  Gb  aps-security.o [14]
emIsSleepyChild         0x0800bb9d    0x1e  Code  Gb  child.o [16]
emIsStateJoiningOrRejoining
                        0x08008597    0x18  Code  Gb  ember-stack-common.o [16]
emIsTokenDataInitialized
                        0x0801684b    0x24  Code  Gb  aps-keys.o [14]
emIsZigbeeStateUnauthenticated
                        0x08009359    0x1a  Code  Gb  network.o [16]
emJitTransmitComplete   0x0800fda3    0x7c  Code  Gb  jit.o [16]
emJoinNetworkInternal   0x0800e5dd   0x134  Code  Gb  association.o [16]
emLeaveCommandSent      0x08014885    0x44  Code  Gb  leave.o [16]
emLeaveNetworkQuietly   0x080145ff    0x32  Code  Gb  leave.o [16]
emLinkQualityToCost     0x080112d3    0x1a  Code  Gb  neighbor.o [16]
emLoadKeyIntoCore       0x08006f51    0x2c  Code  Gb  aes.o [16]
emLoadNetworkKey        0x08013b0f    0x2e  Code  Gb  aps-security.o [14]
emLocalEui64            0x20002cb0     0x8  Data  Gb  eui64.o [16]
emLocalRadioNodeId      0x200029a0     0x2  Data  Lc  phy-common.o [16]
emLocalRadioPanId       0x200029a2     0x2  Data  Lc  phy-common.o [16]
emLongIdDataPendingForDevice
                        0x08006381    0x3a  Code  Gb  mac-indirect.o [16]
emLookupChildEui64ById  0x0800bbe1    0x28  Code  Gb  child.o [16]
emMacAckNeeded          0x20002990     0x1  Data  Gb  phy-common.o [16]
emMacAssociateRequest   0x08010097    0x36  Code  Gb  command.o [16]
emMacAssociateRespond   0x080100cd    0x3e  Code  Gb  command.o [16]
emMacBeaconSequenceNumber
                        0x200029b8     0x1  Data  Gb  mac-arbiter.o [16]
emMacBuffer             0x200029b9     0x1  Data  Gb  mac-arbiter.o [16]
emMacCancelPoll         0x08008f63     0xa  Code  Gb  mac-arbiter.o [16]
emMacCheckIncomingQueue
                        0x08006d0b    0x2a  Code  Gb  mac-receive.o [16]
emMacCheckRadio         0x08006e9f    0x2a  Code  Gb  mac-em250.o [16]
emMacCurrentCommand     0x200029cd     0x1  Data  Gb  mac-arbiter.o [16]
emMacCurrentFrameType   0x200029cc     0x1  Data  Gb  mac-arbiter.o [16]
emMacDequeue            0x08008f6d    0x84  Code  Gb  mac-arbiter.o [16]
emMacDestinationMode    0x08008b51    0x24  Code  Gb  packet-header.o [16]
emMacDestinationPointer
                        0x08008b75    0x20  Code  Gb  packet-header.o [16]
emMacFilterMatchCheck   0x0800dbbd   0x112  Code  Gb  mac-header.o [16]
emMacHeaderLength       0x08008b1b    0x36  Code  Gb  packet-header.o [16]
emMacIncomingQueueIsEmpty
                        0x08006d65     0x6  Code  Gb  mac-receive.o [16]
emMacIndirectCheckPollFlags
                        0x080065a3   0x148  Code  Gb  mac-indirect.o [16]
emMacIndirectEvent      0x200029d4     0x8  Data  Gb  mac-indirect.o [16]
emMacIndirectEventHandler
                        0x08006565    0x36  Code  Gb  mac-indirect.o [16]
emMacIndirectInit       0x080062d5    0x10  Code  Gb  mac-indirect.o [16]
emMacIndirectProcessPollIsr
                        0x080063bb    0x9e  Code  Gb  mac-indirect.o [16]
emMacIndirectPurge      0x0800659b     0x8  Code  Gb  mac-indirect.o [16]
emMacIndirectTransmitComplete
                        0x080064a9    0xbc  Code  Gb  mac-indirect.o [16]
emMacInfoLowByte        0x08008aa3     0xa  Code  Gb  packet-header.o [16]
emMacInit               0x0800906f    0x30  Code  Gb  mac-arbiter.o [16]
emMacIsEmpty            0x08009043    0x2c  Code  Gb  mac-arbiter.o [16]
emMacKickStart          0x0800a6a1    0x34  Code  Gb  mac.o [16]
emMacMakePollCommand    0x0800ffef    0x40  Code  Gb  command.o [16]
emMacMaxAckRetries      0x200029fd     0x1  Data  Gb  mac-em250.o [16]
emMacPassthroughMessageType
                        0x0800db53    0x6a  Code  Gb  mac-header.o [16]
emMacPermitAssn         0x20002fd6     0x1  Data  Gb  command.o [16]
emMacPrepareTransmitBuffer
                        0x0800a8f5   0x174  Code  Gb  mac.o [16]
emMacReallySuspendTransmission
                        0x08008ff1    0x52  Code  Gb  mac-arbiter.o [16]
emMacRequestPoll        0x08008f47    0x1c  Code  Gb  mac-arbiter.o [16]
emMacRetries            0x200029fc     0x1  Data  Gb  mac-em250.o [16]
emMacScanDwell          0x0800a8b1    0x3c  Code  Gb  mac.o [16]
emMacScanEnd            0x0800a87d    0x34  Code  Gb  mac.o [16]
emMacScanType           0x20002948     0x1  Data  Gb  scan.o [16]
emMacSendBeacon         0x0801016d    0x94  Code  Gb  command.o [16]
emMacSendBeaconRequest  0x0800ffc3    0x10  Code  Gb  command.o [16]
emMacSendCoordinatorRealignment
                        0x0801002f    0x68  Code  Gb  command.o [16]
emMacSendMessage        0x0800fe77   0x138  Code  Gb  command.o [16]
emMacSendOrphanNotification
                        0x0800ffaf    0x14  Code  Gb  command.o [16]
emMacShortDestination   0x08008b95     0x8  Code  Gb  packet-header.o [16]
emMacShortSource        0x08008bff     0x6  Code  Gb  packet-header.o [16]
emMacShutdownCallback   0x200029c8     0x4  Data  Gb  mac-arbiter.o [16]
emMacSourceMode         0x08008b9d    0x24  Code  Gb  packet-header.o [16]
emMacSourcePointer      0x08008bc1    0x3e  Code  Gb  packet-header.o [16]
emMacState              0x20002eb0     0x1  Data  Gb  mac.o [16]
emMacSubmit             0x08008ed9    0x6e  Code  Gb  mac-arbiter.o [16]
emMacSubmitIndirect     0x080062e5    0x9c  Code  Gb  mac-indirect.o [16]
emMacTimerEvent         0x20002eb4     0x8  Data  Gb  mac.o [16]
emMacTimerEventHandler  0x0800a6d5   0x15e  Code  Gb  mac.o [16]
emMacToNetworkQueue     0x200029d0     0x4  Data  Gb  mac-arbiter.o [16]
emMacTransmitCompleteCallback
                        0x08009f91    0xae  Code  Gb  network.o [16]
emMacTransmitCompleteHandler
                        0x0800913b    0x1c  Code  Gb  mac-arbiter.o [16]
emMacTransmitCompleteIsr
                        0x080090a1    0x68  Code  Gb  mac-arbiter.o [16]
emMakeApsUnicast        0x08012999    0x60  Code  Gb  application-support.o [16]
emMakeBroadcastBitmask  0x08011257    0x54  Code  Gb  neighbor.o [16]
emMakeChildAlarmJitMessage
                        0x08016d47    0x32  Code  Gb  alarm.o [3]
emMakeHeader            0x08008c0d    0x54  Code  Gb  packet-header.o [16]
emMakeMessage           0x08007fe1    0x10  Code  Gb  packet-buffer.o [16]
emMakeMessageUsingVaList
                        0x08007fad    0x34  Code  Gb  packet-buffer.o [16]
emMakeNetworkStatusMessage
                        0x0801441d    0x2c  Code  Gb  route-error.o [16]
emMakeStackJitMessage   0x0800fc7d    0x5c  Code  Gb  jit.o [16]
emMakeZigbeeCommandHeader
                        0x08011c7f    0x3e  Code  Gb  zigbee-packet-header.o [16]
emMakeZigbeeHeader      0x08011b79   0x106  Code  Gb  zigbee-packet-header.o [16]
emManufacturerCode      0x20002a3a     0x2  Data  Gb  zigbee-device.o [16]
emMarkTaskActive        0x08008eaf     0xe  Code  Gb  event-control.o [16]
emMaxApsUnicastMessages
                        0x20002744     0x1  Data  Gb  ember-configuration.o [1]
emMaxEndDeviceChildren  0x20002756     0x1  Data  Gb  ember-configuration.o [1]
emMaxHops               0x20002757     0x1  Data  Gb  ember-configuration.o [1]
emMaxPhyToMacQueueLength
                        0x20002a02     0x2  Data  Gb  mac-receive.o [16]
emMaximumApsPayloadWithOptions
                        0x08012e1b    0x18  Code  Gb  application-support.o [16]
emMaximumIncomingTransferSize
                        0x20002a3e     0x2  Data  Gb  zigbee-device.o [16]
emMaximumOutgoingTransferSize
                        0x20002a40     0x2  Data  Gb  zigbee-device.o [16]
emMaybeWakeupApsRetry   0x08015ec9    0x24  Code  Gb  aps-retry.o [16]
emMemoryByteCompare     0x08008567    0x1e  Code  Gb  ember-stack-common.o [16]
emMessageBufferLengths  0x200026dc     0x4  Data  Gb  ember-configuration.o [1]
emMessageBufferQueueAdd
                        0x0800813f    0x2a  Code  Gb  packet-buffer.o [16]
emMessageBufferQueueIsEmpty
                        0x080081fd     0xe  Code  Gb  packet-buffer.o [16]
emMessageBufferQueueRemove
                        0x08008195    0x46  Code  Gb  packet-buffer.o [16]
emMessageBufferQueueRemoveHead
                        0x08008169    0x2c  Code  Gb  packet-buffer.o [16]
emMessageBufferReferenceCounts
                        0x200026e0     0x4  Data  Gb  ember-configuration.o [1]
emMfgSecurityConfigModifyKey
                        0x080186c1    0x34  Code  Gb  security-config-mfg-3xx.o [14]
emMfglibMode            0x20002991     0x1  Data  Gb  phy-common.o [16]
emMfglibRxCallback      0x20002a08     0x4  Data  Gb  mac-receive.o [16]
emMfglibTransmitComplete
                        0x20002992     0x1  Data  Gb  phy-common.o [16]
emMobileChildCount      0x200028ea     0x1  Data  Gb  child.o [16]
emModifySecurityState   0x080167f5     0x6  Code  Gb  aps-keys.o [14]
emMsSinceLastSuccessfulPoll
                        0x08015161     0x8  Code  Gb  child-aging.o [16]
emNeedsFurtherTransmissions
                        0x0800a515    0x3c  Code  Gb  network.o [16]
emNegotiationProtocolEvent
                        0x20002f3c     0x8  Data  Gb  aps-skke-stub.o [14]
emNeighborCost          0x080112ab    0x28  Code  Gb  neighbor.o [16]
emNeighborData          0x20002728     0x4  Data  Gb  ember-configuration.o [1]
emNeighborEntryIncomingCost
                        0x080112ed     0x6  Code  Gb  neighbor.o [16]
emNeighborEntryIndex    0x08010f07    0x14  Code  Gb  neighbor.o [16]
emNeighborEntrySetAge   0x080113a7     0xe  Code  Gb  neighbor.o [16]
emNeighborEntrySetOutgoingCost
                        0x0801132d     0xc  Code  Gb  neighbor.o [16]
emNeighborEvent         0x20002e24     0x8  Data  Gb  neighbor.o [16]
emNeighborEventHandler  0x08011339    0x6e  Code  Gb  neighbor.o [16]
emNeighborExchangeEvent
                        0x20002f44     0x8  Data  Gb  neighbor-exchange.o [16]
emNeighborExchangeEventHandler
                        0x08014bd5    0x40  Code  Gb  neighbor-exchange.o [16]
emNeighborFindEntry     0x08010f1b    0x1e  Code  Gb  neighbor.o [16]
emNeighborFirstCurrentKeyUse
                        0x08013deb    0x44  Code  Gb  zigbee-neighbor.o [16]
emNeighborIdConflict    0x08014293    0x26  Code  Gb  random-id.o [16]
emNeighborInit          0x08010e57    0x20  Code  Gb  neighbor.o [16]
emNeighborProcessQuality
                        0x08010e21    0x36  Code  Gb  neighbor.o [16]
emNetworkAddressRequest
                        0x08017ccd    0x28  Code  Gb  zigbee-device-util.o [16]
emNetworkCheckIncomingQueue
                        0x0800988f    0x44  Code  Gb  network.o [16]
emNetworkDescriptor     0x20002720     0x4  Data  Gb  ember-configuration.o [1]
emNetworkDescriptorInit
                        0x080068d5    0x72  Code  Gb  ember-multi-network-stub.o [11]
emNetworkEncrypt        0x0800969f    0x78  Code  Gb  network.o [16]
emNetworkInit           0x08009315    0x44  Code  Gb  network.o [16]
emNetworkManagementEvent
                        0x20002a24     0x8  Data  Gb  management.o [16]
emNetworkManagementEventHandler
                        0x0800fa15    0x5c  Code  Gb  management.o [16]
emNetworkManagementInit
                        0x0800f879     0xe  Code  Gb  management.o [16]
emNetworkProcessIncoming
                        0x080098d3   0x10e  Code  Gb  network.o [16]
emNetworkSend           0x08009373    0x2c  Code  Gb  network.o [16]
emNetworkSendBroadcast  0x080093a1    0x8a  Code  Gb  network.o [16]
emNetworkSendUnicast    0x08009467   0x1b2  Code  Gb  network.o [16]
emNetworkSubmitUnicast  0x08009619     0x2  Code  Gb  network.o [16]
emNetworkToApplicationQueue
                        0x200029b0     0x4  Data  Gb  network.o [16]
emNetworkTransmitComplete
                        0x0800a04d   0x22a  Code  Gb  network.o [16]
emNetworkTransmitCompleteCallback
                        0x08016213    0x8e  Code  Gb  aps-retry.o [16]
emNextApsFrameCounter   0x080114f3    0x1a  Code  Gb  crypto.o [16]
emNormalizeBufferIndex  0x08007f37    0x18  Code  Gb  packet-buffer.o [16]
emNoteChildChange       0x0800bc09    0x4a  Code  Gb  child.o [16]
emNoteIncomingFrameCounter
                        0x08013cff     0xe  Code  Gb  zigbee-neighbor.o [16]
emNoteJoinAuthenticated
                        0x0800e445    0x4a  Code  Gb  association.o [16]
emNoteJoinFailureForTimeout
                        0x0800e379     0x8  Code  Gb  association.o [16]
emNoteJoiningChange     0x0800f031    0x1e  Code  Gb  association.o [16]
emNoteLinkKeyRequest    0x0800e381    0x22  Code  Gb  association.o [16]
emNoteNodeTypeChange    0x08006aa1     0x2  Code  Gb  ember-multi-network-stub.o [11]
emNoteSleepyDeviceInKeyTable
                        0x08018671     0x2  Code  Gb  aps-keys-full-stub.o [15]
emNoteSuccessfulPoll    0x0801513b    0x26  Code  Gb  child-aging.o [16]
emNoteUnicastRetryEvent
                        0x08015d5f    0x22  Code  Gb  aps-retry.o [16]
emOverrideTrustCenterEui64
                        0x080168f9     0x4  Code  Gb  aps-keys.o [14]
emPacketBufferCount     0x200026d4     0x1  Data  Gb  ember-configuration.o [1]
emPacketBufferData      0x200026d8     0x4  Data  Gb  ember-configuration.o [1]
emPacketBufferFreeCount
                        0x200026d5     0x1  Data  Gb  ember-configuration.o [1]
emPacketBufferLinks     0x200026e4     0x4  Data  Gb  ember-configuration.o [1]
emPacketBufferQueueLinks
                        0x200026e8     0x4  Data  Gb  ember-configuration.o [1]
emPacketHeaderContents  0x08008a85    0x14  Code  Gb  packet-header.o [16]
emPacketHeaderOverhead  0x08008a6f    0x16  Code  Gb  packet-header.o [16]
emPacketHeaderPayload   0x08007c91    0x1a  Code  Gb  packet-buffer.o [16]
emPacketReceivedInternalIsrCallback
                        0x08006acd    0x72  Code  Gb  mac-receive.o [16]
emPacketValidateCheck   0x08014049    0x42  Code  Gb  packet-validate.o [12]
emPanIdConflictReportThreshold
                        0x2000275d     0x1  Data  Gb  ember-configuration.o [1]
emPhySetCoordinator     0x08003d1f    0x1e  Code  Gb  phy-common.o [16]
emPhySetEui64           0x08003cf1    0x2e  Code  Gb  phy-common.o [16]
emPhyToMacQueue         0x20002a0c     0x4  Data  Gb  mac-receive.o [16]
emPickNewId             0x0801419d    0x5a  Code  Gb  random-id.o [16]
emPickRandomId          0x0801414d    0x50  Code  Gb  random-id.o [16]
emPollDelayingEvent     0x20002e14     0x8  Data  Gb  ember-multi-network-stub.o [11]
emPollDelayingHandler   0x08006a9f     0x2  Code  Gb  ember-multi-network-stub.o [11]
emPollPending           0x08006a97     0x4  Code  Gb  ember-multi-network-stub.o [11]
emPowerDescriptor       0x20002a3c     0x2  Data  Gb  zigbee-device.o [16]
emPrepareRetryEntryForSubmission
                        0x0800a28d   0x25e  Code  Gb  network.o [16]
emPrintfInternal        0x08004fab   0x172  Code  Gb  serial.o [1]
emProcessAlarmMessage   0x08016bcd    0x44  Code  Gb  alarm.o [3]
emProcessApplicationKey
                        0x0801866d     0x4  Code  Gb  aps-keys-full-stub.o [15]
emProcessChildAlarmMessage
                        0x08016c8d    0xba  Code  Gb  alarm.o [3]
emProcessIncomingBeacon
                        0x0800f061   0x22a  Code  Gb  association.o [16]
emProcessIncomingBroadcast
                        0x08009da3   0x102  Code  Gb  network.o [16]
emProcessJoinRequest    0x0800ea21   0x194  Code  Gb  association.o [16]
emProcessJoinResponse   0x0800ebbd   0x14e  Code  Gb  association.o [16]
emProcessManagementCommand
                        0x0800f8f7   0x112  Code  Gb  management.o [16]
emProcessNegotiationMessage
                        0x08018661     0x2  Code  Gb  aps-skke-stub.o [14]
emProcessNeighborExchange
                        0x080149e3   0x1f2  Code  Gb  neighbor-exchange.o [16]
emProcessNetworkHeader  0x0800a5a5    0x8a  Code  Gb  network.o [16]
emProcessRequestKey     0x08017f5d    0xc4  Code  Gb  trust-center-util.o [14]
emProcessTransmitState  0x08006edd     0xc  Code  Gb  mac-em250.o [16]
emProcessZllInterpanStackMessage
                        0x0800dfb7     0x4  Code  Gb  zll-stubs.o [17]
emPurgeAddressTableEntryPendingMessages
                        0x08016559    0x34  Code  Gb  aps-retry.o [16]
emRadioAdjustLna        0x08004829     0x4  Code  Gb  analogue-lna.o [16]
emRadioAdjustModDac     0x080045b9     0xe  Code  Gb  analogue-mod-dac.o [16]
emRadioAlwaysUseZeroBackoff
                        0x2000299a     0x1  Data  Gb  phy-common.o [16]
emRadioAutoAckEnabled   0x08003ceb     0x6  Code  Gb  phy-common.o [16]
emRadioBootPhySpecific  0x08003091    0x64  Code  Gb  phy.o [16]
emRadioCalculateLinkQuality
                        0x08003647    0x16  Code  Gb  phy-common.o [16]
emRadioCalculateModDacTuneValue
                        0x080046e5   0x10c  Code  Gb  analogue-mod-dac.o [16]
emRadioCalibrateCellBias
                        0x08002dbd    0xaa  Code  Gb  analogue-cell-bias.o [16]
emRadioCalibrateFilter  0x0800358d    0x38  Code  Gb  analogue-filter.o [16]
emRadioCalibrateLna     0x08004833   0x160  Code  Gb  analogue-lna.o [16]
emRadioCalibrateVco     0x08004509    0x8c  Code  Gb  analogue-vco.o [16]
emRadioChannel          0x200028cc     0x1  Data  Gb  analogue.o [16]
emRadioCheckRadio       0x080034cb    0x34  Code  Gb  phy.o [16]
emRadioEnableAddressMatching
                        0x08003c9b    0x20  Code  Gb  phy-common.o [16]
emRadioEnableAutoAck    0x08003cbb    0x30  Code  Gb  phy-common.o [16]
emRadioEnablePacketTrace
                        0x08003d6b    0x18  Code  Gb  phy-common.o [16]
emRadioEnergyDetection  0x08003c81    0x1a  Code  Gb  phy-common.o [16]
emRadioGetEdCcaThreshold
                        0x08003dcf     0x8  Code  Gb  phy-common.o [16]
emRadioGetIdleMode      0x08003c55     0x6  Code  Gb  phy-common.o [16]
emRadioGetNodeId        0x08003d45     0x6  Code  Gb  phy-common.o [16]
emRadioGetPanId         0x08003d55     0x6  Code  Gb  phy-common.o [16]
emRadioGetPowerStatus   0x08003c2d     0x6  Code  Gb  phy-common.o [16]
emRadioGetRandomNumbers
                        0x080033ff    0x5c  Code  Gb  phy.o [16]
emRadioHoldOffIsr       0x080034ff    0x2a  Code  Gb  phy.o [16]
emRadioIdleMicro        0x080037eb    0x50  Code  Gb  phy-common.o [16]
emRadioInit             0x08003a31   0x11c  Code  Gb  phy-common.o [16]
emRadioLastOutgoingCommand
                        0x2000299b     0x1  Data  Gb  phy-common.o [16]
emRadioMacTimerDelayExpired
                        0x20002fe5     0x1  Data  Gb  phy-common.o [16]
emRadioManagePollTxRxTurnaround
                        0x20002999     0x1  Data  Gb  phy-common.o [16]
emRadioOkToIdle         0x08003c35    0x20  Code  Gb  phy-common.o [16]
emRadioPower            0x200028d8     0x1  Data  Gb  analogue.o [16]
emRadioReadSerialReg    0x0800244d     0xe  Code  Gb  analogue.o [16]
emRadioReceiveCompleteCallback
                        0x08009159   0x160  Code  Gb  mac-arbiter.o [16]
emRadioReceiveCrcEnabled
                        0x08003d65     0x6  Code  Gb  phy-common.o [16]
emRadioReceiveIsr       0x080032c5   0x134  Code  Gb  phy.o [16]
emRadioReceiveMacHeaderCallback
                        0x0800dcd1   0x14e  Code  Gb  mac-header.o [16]
emRadioResetAndEnableReceive
                        0x08003045    0x4c  Code  Gb  phy.o [16]
emRadioSeedRandom       0x080171ad    0x12  Code  Gb  phy-util.o [16]
emRadioSetEdCcaThreshold
                        0x08003d83    0x4c  Code  Gb  phy-common.o [16]
emRadioSetIdleMode      0x08003c5b    0x26  Code  Gb  phy-common.o [16]
emRadioSetNodeId        0x08003d4b     0xa  Code  Gb  phy-common.o [16]
emRadioSetPanId         0x08003d5b     0xa  Code  Gb  phy-common.o [16]
emRadioSleep            0x08003b55    0x7a  Code  Gb  phy-common.o [16]
emRadioTransmit         0x080036a1   0x14a  Code  Gb  phy-common.o [16]
emRadioTransmitCompleteCallback
                        0x08006dc9    0x9e  Code  Gb  mac-em250.o [16]
emRadioTransmitIsr      0x0800383b   0x1f6  Code  Gb  phy-common.o [16]
emRadioTruncateIncomingAckToPoll
                        0x20002cec     0x1  Data  Gb  phy.o [16]
emRadioTxAckIsrCallback
                        0x08006e67    0x38  Code  Gb  mac-em250.o [16]
emRadioTxPowerMode      0x200028e4     0x2  Data  Gb  analogue.o [16]
emRadioUnpackChipErrors
                        0x08003639     0xe  Code  Gb  phy-common.o [16]
emRadioWakeUp           0x08003bcf    0x5e  Code  Gb  phy-common.o [16]
emRadioWriteSerialReg   0x0800245b    0x34  Code  Gb  analogue.o [16]
emReadRadioTokens       0x0800f5e7    0x2e  Code  Gb  association.o [16]
emReadSecurityToken     0x08016811    0x3a  Code  Gb  aps-keys.o [14]
emReallyCopyToLinkedBuffers
                        0x08007d5d    0x42  Code  Gb  packet-buffer.o [16]
emReallyGetNetworkKey   0x0801383d    0x2a  Code  Gb  aps-security.o [14]
emReallySendRouteRequest
                        0x08011ff1   0x18a  Code  Gb  route-discovery.o [16]
emReallyStopScan        0x0801035d    0x5c  Code  Lc  scan.o [16]
emReconstructDecryptedHeader
                        0x08011af3    0x38  Code  Gb  zigbee-packet-header.o [16]
emReencryptRetries      0x20002a10     0x1  Data  Gb  aps-retry.o [16]
emReleaseMessageBuffer  0x08007c23    0x6e  Code  Gb  packet-buffer.o [16]
emRemoteModifyBinding   0x08017477    0x90  Code  Gb  binding-table.o [4]
emRemoveApsMic          0x08018631    0x1e  Code  Gb  aps-encryption.o [14]
emRemoveNeighbor        0x08011049    0x9e  Code  Gb  neighbor.o [16]
emRemoveNeighborEui     0x08011167    0x42  Code  Gb  neighbor.o [16]
emReplaceNeighbor       0x080110e7    0x10  Code  Gb  neighbor.o [16]
emRequestKeyEvent       0x20002cd8     0x8  Data  Gb  aps-keys.o [14]
emRequestKeyEventHandler
                        0x08016b6d    0x2c  Code  Gb  aps-keys.o [14]
emRequestKeyTimeout     0x20002fce     0x1  Data  Gb  ember-configuration.o [1]
emRequestKeyTimeoutControl
                        0x08016b3b    0x18  Code  Gb  aps-keys.o [14]
emRequireLongIdForMovedChildCheck
                        0x0800dfc5     0x4  Code  Gb  zll-stubs.o [17]
emResetApsFrameCounter  0x0801150d    0x1c  Code  Gb  crypto.o [16]
emResetNwkFrameCounter  0x080114cd    0x1e  Code  Gb  crypto.o [16]
emResetNwkFrameCounters
                        0x08013c71    0x22  Code  Gb  zigbee-neighbor.o [16]
emRestoreCurrentNetworkInternal
                        0x080069d5     0x2  Code  Gb  ember-multi-network-stub.o [11]
emRetryCancel           0x08010c2f    0x56  Code  Gb  retry.o [16]
emRetryDelayEvent       0x20002f50     0x8  Data  Gb  retry.o [16]
emRetryDelayEventHandler
                        0x08010db5     0x6  Code  Gb  retry.o [16]
emRetryInit             0x08010cc9     0xc  Code  Gb  retry.o [16]
emRetryIsEmpty          0x08010c85    0x10  Code  Gb  retry.o [16]
emRetryPurge            0x08010c9f    0x2a  Code  Gb  retry.o [16]
emRetrySubmit           0x08010bf9    0x36  Code  Gb  retry.o [16]
emRetryTransmit         0x08010cd5    0x22  Code  Gb  retry.o [16]
emRetryTransmitComplete
                        0x08010cf7    0x34  Code  Gb  retry.o [16]
emRouteData             0x20002708     0x4  Data  Gb  ember-configuration.o [1]
emRouteTableNextHop     0x0801093f    0x4c  Code  Gb  route-table.o [16]
emRouteTableSize        0x2000270c     0x1  Data  Gb  ember-configuration.o [1]
emRouterNeighborTableSize
                        0x2000272c     0x1  Data  Gb  ember-configuration.o [1]
emScanCommandTransmitCompleteIsr
                        0x08010599    0x5e  Code  Gb  scan.o [16]
emScanCompleteHandler   0x0800f28b   0x172  Code  Gb  association.o [16]
emScanEvent             0x20002950     0x8  Data  Gb  scan.o [16]
emScanEventHandler      0x080103c1    0xfa  Code  Gb  scan.o [16]
emScanTimerIsr          0x080104c3    0x70  Code  Gb  scan.o [16]
emScheduleNextPoll      0x08006a9b     0x4  Code  Gb  ember-multi-network-stub.o [11]
emSearchDiscoveryTable  0x08010855    0x4e  Code  Gb  route-table.o [16]
emSecurityEui64         0x08013c93    0x4c  Code  Gb  zigbee-neighbor.o [16]
emSecurityHardwareInit  0x08006f7d     0x2  Code  Gb  aes.o [16]
emSecurityIncrementOutgoingFrameCounter
                        0x0801149b    0x28  Code  Gb  crypto.o [16]
emSecurityInit          0x08011529    0x36  Code  Gb  crypto.o [16]
emSecurityOkayToStartNetworkOperation
                        0x08013115    0x42  Code  Gb  aps-security.o [14]
emSecurityReadFrameCounterToken
                        0x08011469    0x32  Code  Gb  crypto.o [16]
emSendApplicationMasterKey
                        0x20002a2e     0x1  Data  Gb  trust-center-util.o [14]
emSendApsCommand        0x080133bd   0x14c  Code  Gb  aps-security.o [14]
emSendApsMessage        0x08012751   0x248  Code  Gb  application-support.o [16]
emSendKey               0x08013609   0x108  Code  Gb  aps-security.o [14]
emSendMulticastsToSleepyAddress
                        0x20002fcf     0x1  Data  Gb  ember-configuration.o [1]
emSendNetworkKey        0x08017f31    0x2c  Code  Gb  trust-center-util.o [14]
emSendOurEndDeviceAnnouncement
                        0x08017ca1    0x2c  Code  Gb  zigbee-device-util.o [16]
emSendPanIdConflictReport
                        0x0800fb3f    0x42  Code  Gb  management.o [16]
emSendRejoinResponse    0x0800e997    0x8a  Code  Gb  association.o [16]
emSendReply             0x08012e45    0x4a  Code  Gb  application-support.o [16]
emSendReportOrUpdate    0x0800fa71    0x92  Code  Gb  management.o [16]
emSendRouteError        0x080143e1    0x3c  Code  Gb  route-error.o [16]
emSendRouteRecord       0x080126af    0x8e  Code  Gb  route-discovery.o [16]
emSendRouteReply        0x08012211    0xdc  Code  Gb  route-discovery.o [16]
emSendRouteRequest      0x08011fdd    0x14  Code  Gb  route-discovery.o [16]
emSendUpdateDevice      0x080135b9    0x48  Code  Gb  aps-security.o [14]
emSendZigDevMessage     0x08017d1f    0x94  Code  Gb  zigbee-device-util.o [16]
emSerial1RxQueue        0x20002c0c    0x18  Data  Lc  serial.o [1]
emSerial1TxQueue        0x20002b84    0x88  Data  Lc  serial.o [1]
emSerialPortModes       0x080053a0     0x4  Data  Gb  serial.o [1]
emSerialRegAddress      0x080029e0    0x24  Data  Gb  analogue.o [16]
emSerialRxError         0x200028a0     0x4  Data  Gb  serial.o [1]
emSerialRxErrorIndex    0x200028a4     0x8  Data  Gb  serial.o [1]
emSerialRxQueueSizes    0x0801bad0     0x8  Data  Gb  serial.o [1]
emSerialRxQueueWraps    0x080053ac     0x8  Data  Gb  serial.o [1]
emSerialRxQueues        0x200028bc    0x10  Data  Gb  serial.o [1]
emSerialTxQueueSizes    0x08005398     0x8  Data  Gb  serial.o [1]
emSerialTxQueueWraps    0x080053a4     0x8  Data  Gb  serial.o [1]
emSerialTxQueues        0x200028ac    0x10  Data  Gb  serial.o [1]
emSetAllChildrenToAlternateKey
                        0x0800bae3    0x26  Code  Gb  child.o [16]
emSetAllNeighborsUsingAlternateKey
                        0x080113b5    0x26  Code  Gb  neighbor.o [16]
emSetAllSleepyChildFlags
                        0x0800b8a3    0x36  Code  Gb  child.o [16]
emSetChildId            0x0800bc53    0x36  Code  Gb  child.o [16]
emSetCurrentNetworkInternal
                        0x080069d3     0x2  Code  Gb  ember-multi-network-stub.o [11]
emSetCurrentRadioNetwork
                        0x08006a3d    0x26  Code  Gb  ember-multi-network-stub.o [11]
emSetLinkedBuffersLength
                        0x08007e57    0x6c  Code  Gb  packet-buffer.o [16]
emSetMacDataAddress     0x08008af1    0x2a  Code  Gb  packet-header.o [16]
emSetNeighborEui64      0x080112f5    0x38  Code  Gb  neighbor.o [16]
emSetNeighboringDevicesUsingAlternateKey
                        0x08013dcf    0x1c  Code  Gb  zigbee-neighbor.o [16]
emSetNetworkKey         0x0801379d    0x98  Code  Gb  aps-security.o [14]
emSetNetworkManagementState
                        0x0800f8db    0x1c  Code  Gb  management.o [16]
emSetNetworkParameters  0x0800f519    0x36  Code  Gb  association.o [16]
emSetNetworkState       0x08008499    0x66  Code  Gb  ember-stack-common.o [16]
emSetNodeId             0x0800e239     0x8  Code  Gb  zigbee-stack.o [16]
emSetNodeType           0x0800f48f    0x38  Code  Gb  association.o [16]
emSetNwkUpdateId        0x0800f8bf    0x1c  Code  Gb  management.o [16]
emSetPacketHeaderPayload
                        0x08007cab    0x3e  Code  Gb  packet-buffer.o [16]
emSetPanId              0x0800e249     0x8  Code  Gb  zigbee-stack.o [16]
emSetParent             0x0800f74d    0x18  Code  Gb  association.o [16]
emSetPhyRadioChannel    0x08002829    0x10  Code  Gb  analogue.o [16]
emSetPhyRadioPower      0x08002847    0xe4  Code  Gb  analogue.o [16]
emSetRadioParameters    0x08006947    0x54  Code  Gb  ember-multi-network-stub.o [11]
emSetRouteStatusAndZeroAge
                        0x08010619    0x10  Code  Gb  route-table.o [16]
emSetSleepyBroadcast    0x0800fc25    0x34  Code  Gb  jit.o [16]
emSetTrustCenterData    0x08016789    0x6c  Code  Gb  aps-keys.o [14]
emSetTrustCenterEui64   0x080168f5     0x4  Code  Gb  aps-keys.o [14]
emSetZigbeeEventNetworkIndex
                        0x080069bf     0x2  Code  Gb  ember-multi-network-stub.o [11]
emSleepyBroadcastEvent  0x20002904     0x8  Data  Gb  jit.o [16]
emSleepyBroadcastEventHandler
                        0x0800fc59    0x24  Code  Gb  jit.o [16]
emSleepyBroadcastHeader
                        0x20002900     0x1  Data  Gb  jit.o [16]
emSourceRouteSubframeIndex
                        0x08011b2b    0x30  Code  Gb  zigbee-packet-header.o [16]
emStackEnergyScanHandler
                        0x0801775d    0x10  Code  Gb  zdo-channel.o [16]
emStackMacFilterMatchList
                        0x20002fb8     0x4  Data  Gb  mac-header.o [16]
emStackProfile          0x20002fcc     0x1  Data  Gb  ember-configuration.o [1]
emStackTask             0x20002fd7     0x1  Data  Gb  zigbee-stack.o [16]
emStackTokenPrimitive   0x080182d9    0x90  Code  Gb  token-cache.o [16]
emStandAloneEncryptBlock
                        0x08006f7f    0x46  Code  Gb  aes.o [16]
emStartAdcTempReading   0x0800345b     0x8  Code  Gb  phy.o [16]
emStartEntityAuthenticationTimer
                        0x080178f3     0x2  Code  Gb  high-security-stub.o [14]
emStartRadioSetChannel  0x080027c9     0x4  Code  Gb  analogue.o [16]
emStartScan             0x080102b5    0x66  Code  Lc  scan.o [16]
emStopScan              0x0801031b    0x42  Code  Gb  scan.o [16]
emStoreInt32u           0x0800df39    0x1c  Code  Gb  byte-utilities.o [16]
emSupportedNetworks     0x20002724     0x1  Data  Gb  ember-configuration.o [1]
emSwitchNetworkKeys     0x0801372b    0x72  Code  Gb  aps-security.o [14]
emSynthFreqOffset       0x200028d4     0x1  Data  Gb  analogue.o [16]
emTaskCount             0x0801bab0     0x1  Data  Gb  ember-configuration.o [1]
emTaskDetermineNextEvent
                        0x08008d25    0x28  Code  Lc  event-control.o [16]
emTasks                 0x20002b4c    0x24  Data  Gb  ember-configuration.o [1]
emTrackNextEvent        0x08008c81    0x24  Code  Lc  event-control.o [16]
emTreeDepth             0x20002fe8     0x1  Data  Gb  random-id.o [16]
emTrustCenterAddedAsNeighbor
                        0x08013bbf    0x42  Code  Gb  aps-security.o [14]
emTrustCenterRequestKeyCleanup
                        0x08018211    0x1c  Code  Gb  trust-center-util.o [14]
emTxStepTimeAltRfPath   0x200028d9     0x1  Data  Gb  analogue.o [16]
emUnicastAlarmData      0x20002700     0x4  Data  Gb  ember-configuration.o [1]
emUnicastAlarmDataSize  0x20002fc6     0x1  Data  Gb  ember-configuration.o [1]
emUnicastTable          0x20002fa4    0x10  Data  Gb  unicast-table.o [16]
emUpdateAddressTable    0x08014dc9    0x32  Code  Gb  address-table.o [16]
emUpdateBindingFlags    0x080172e5    0x52  Code  Gb  binding-table.o [4]
emUpdateBindingRemoteNode
                        0x0801725f    0x86  Code  Gb  binding-table.o [4]
emUpdateBroadcastTable  0x08010a33    0x2a  Code  Gb  broadcast.o [16]
emUpdateNeighborTable   0x08011237    0x20  Code  Gb  neighbor.o [16]
emUpdateRouteReplyForRelaying
                        0x080122ed    0xaa  Code  Gb  route-discovery.o [16]
emUsingGlobalLinkKey    0x08013c01    0x1a  Code  Gb  aps-security.o [14]
emVcoAutoTuneEnabled    0x200028cd     0x1  Data  Gb  analogue.o [16]
emWeakestNeighborIndex  0x08014995    0x4e  Code  Gb  neighbor-exchange.o [16]
emWriteHexInternal      0x08004f81    0x2a  Code  Gb  serial.o [1]
emWriteNodeData         0x0800f5af    0x28  Code  Gb  association.o [16]
emWriteRadioAndNetworkTokens
                        0x0800f555    0x5a  Code  Gb  association.o [16]
emWriteSecurityToken    0x080167fb    0x16  Code  Gb  aps-keys.o [14]
emZigDevPrepareZdoMessage
                        0x08017d09    0x16  Code  Gb  zigbee-device-util.o [16]
emZigbeeApplicationEvent
                        0x20002a14     0x8  Data  Gb  aps-retry.o [16]
emZigbeeApplicationEventHandler
                        0x08015ec5     0x4  Code  Gb  aps-retry.o [16]
emZigbeeAssociationEvent
                        0x20002928     0x8  Data  Gb  association.o [16]
emZigbeeAssociationEventHandler
                        0x0800ef4b    0xa2  Code  Gb  association.o [16]
emZigbeeBeaconEvent     0x20002938     0x8  Data  Gb  association.o [16]
emZigbeeBeaconEventHandler
                        0x0800f001    0x28  Code  Gb  association.o [16]
emZigbeeChildJoinNotify
                        0x08013509    0x64  Code  Gb  aps-security.o [14]
emZigbeeDestinationIeeeAddress
                        0x08011ce1    0x1a  Code  Gb  zigbee-packet-header.o [16]
emZigbeeDeviceBindUnbindResponse
                        0x0801a10b     0x2  Code  Gb  end-device-bind-stub.o [7]
emZigbeeDeviceEvent     0x20002f8c     0x8  Data  Gb  end-device-bind-stub.o [7]
emZigbeeDeviceEventHandler
                        0x0801a109     0x2  Code  Gb  end-device-bind-stub.o [7]
emZigbeeDeviceRequestHandler
                        0x080178f9   0x164  Code  Gb  zigbee-device-util.o [16]
emZigbeeDeviceResponseHandler
                        0x08017c05    0x98  Code  Gb  zigbee-device-util.o [16]
emZigbeeLeaveEvent      0x2000297c     0x8  Data  Gb  leave.o [16]
emZigbeeLeaveEventHandler
                        0x08014529    0x2e  Code  Gb  leave.o [16]
emZigbeeLeaveInternal   0x0801456b    0x8c  Code  Gb  leave.o [16]
emZigbeeMaxNetworkRetries
                        0x200029b4     0x1  Data  Gb  network.o [16]
emZigbeeNegotiationProtocolEventHandler
                        0x08018663     0x2  Code  Gb  aps-skke-stub.o [14]
emZigbeePermitJoiningEvent
                        0x20002cd0     0x8  Data  Gb  association.o [16]
emZigbeePermitJoiningEventHandler
                        0x0800e581     0xc  Code  Gb  association.o [16]
emZigbeeProApsEncryptPacket
                        0x080118cf    0x6c  Code  Gb  crypto.o [16]
emZigbeeProDecryptPacket
                        0x080119a5    0x92  Code  Gb  crypto.o [16]
emZigbeeProNetworkEncryptFlatPacket
                        0x0801193b    0x5a  Code  Gb  crypto.o [16]
emZigbeeSourceIeeeAddress
                        0x08011cfb    0x22  Code  Gb  zigbee-packet-header.o [16]
emZllDeviceAnnounceHandler
                        0x0800dfbf     0x2  Code  Gb  zll-stubs.o [17]
emZllInit               0x0800dfc9     0x2  Code  Gb  zll-stubs.o [17]
emZllLeaveCallback      0x0800dfb5     0x2  Code  Gb  zll-stubs.o [17]
emZllScanComplete       0x0800dfb1     0x4  Code  Gb  zll-stubs.o [17]
emZllSendScanRequest    0x0800dfa3     0x4  Code  Gb  zll-stubs.o [17]
emZllStackStatusHandler
                        0x0800dfbb     0x4  Code  Gb  zll-stubs.o [17]
emZllTouchLinkEvent     0x20002f94     0x8  Data  Gb  zll-stubs.o [17]
emZllTouchLinkEventHandler
                        0x0800dfa1     0x2  Code  Gb  zll-stubs.o [17]
emberAddressTableEntryIsActive
                        0x08016555     0x4  Code  Gb  aps-retry.o [16]
emberAesHashSimple      0x0801a143    0x2c  Code  Gb  aes-mmo.o [14]
emberAesMmoHashFinal    0x0801a1af    0xb2  Code  Gb  aes-mmo.o [14]
emberAesMmoHashInit     0x0801a16f     0x8  Code  Gb  aes-mmo.o [14]
emberAesMmoHashUpdate   0x0801a177    0x38  Code  Gb  aes-mmo.o [14]
emberAllocateLinkedBuffers
                        0x08007b4b    0xbc  Code  Gb  packet-buffer.o [16]
emberAppLinkKeyRequestPolicy
                        0x20002754     0x1  Data  Gb  ember-configuration.o [1]
emberAppendPgmStringToLinkedBuffers
                        0x08007e43    0x14  Code  Gb  packet-buffer.o [16]
emberAppendSourceRouteHandler
                        0x0800860f     0x4  Code  Gb  ember-configuration.o [1]
emberAppendToLinkedBuffers
                        0x08007e3f     0x4  Code  Gb  packet-buffer.o [16]
emberApsAckTimeoutMs    0x2000274c     0x2  Data  Gb  ember-configuration.o [1]
emberBindingTableSize   0x20002fc8     0x1  Data  Gb  ember-configuration.o [1]
emberBootloadTransmitCompleteHandler
                        0x080157a9    0x28  Code  Gb  bootload-utils.o [1]
emberCalibrateCurrentChannel
                        0x080027bd     0xc  Code  Gb  analogue.o [16]
emberCalibrateVref      0x080024c3    0x1e  Code  Gb  analogue.o [16]
emberChildId            0x0800bb25    0x20  Code  Gb  child.o [16]
emberChildIndex         0x08006895    0x40  Code  Gb  child-table.o [16]
emberChildJoinHandler   0x0800b0f5    0x2a  Code  Gb  common.o [1]
emberChildTableSize     0x200026f4     0x1  Data  Gb  ember-configuration.o [1]
emberClearMessageFlag   0x0800fbed    0x30  Code  Gb  jit.o [16]
emberCopyBufferBytes    0x080080db    0x64  Code  Gb  packet-buffer.o [16]
emberCopyLinkedBuffers  0x08007f65    0x40  Code  Gb  packet-buffer.o [16]
emberCounterHandler     0x0800868f     0x2  Code  Gb  ember-configuration.o [1]
emberCurrentStackTasks  0x0800e12d    0x62  Code  Gb  zigbee-stack.o [16]
emberDebugAssert        0x08004bcd     0xa  Code  Gb  debug.o [16]
emberDebugHandler       0x08008603     0x2  Code  Gb  ember-configuration.o [1]
emberDebugPrintf        0x08004c73    0x5c  Code  Gb  debug.o [16]
emberDebugReportRestore
                        0x08004c6d     0x6  Code  Gb  debug.o [16]
emberDefaultTrustCenterDecision
                        0x20002fd0     0x1  Data  Gb  ember-configuration.o [1]
emberEmbernetPassthroughSourceAddress
                        0x20002a36     0x2  Data  Gb  mac-header.o [16]
emberEndDevicePollTimeout
                        0x2000275b     0x1  Data  Gb  ember-configuration.o [1]
emberEndDevicePollTimeoutShift
                        0x2000275c     0x1  Data  Gb  ember-configuration.o [1]
emberEndpointCount      0x200027d8     0x1  Data  Gb  sensor.o [1]
emberEndpoints          0x200027dc    0x10  Data  Gb  sensor.o [1]
emberEnergyScanResultHandler
                        0x080182b1     0x4  Code  Gb  form-and-join-node-callbacks.o [1]
emberFetchLowHighInt16u
                        0x080080a1     0xc  Code  Gb  packet-buffer.o [16]
emberFillLinkedBuffers  0x08007d29    0x34  Code  Gb  packet-buffer.o [16]
emberFillStackBuffer    0x08007ce9    0x40  Code  Gb  packet-buffer.o [16]
emberFindAndRejoinNetwork
                        0x0800e80f     0x2  Code  Gb  association.o [16]
emberFindAndRejoinNetworkWithReason
                        0x0800e811    0x78  Code  Gb  association.o [16]
emberFindKeyTableEntry  0x08018669     0x4  Code  Gb  aps-keys-full-stub.o [15]
emberFormAndJoinCleanup
                        0x0801974b    0x2a  Code  Gb  form-and-join.o [1]
emberFormAndJoinEnergyScanResultHandler
                        0x080196fb    0x36  Code  Gb  form-and-join.o [1]
emberFormAndJoinIsScanning
                        0x0801973d     0xe  Code  Gb  form-and-join.o [1]
emberFormAndJoinNetworkFoundHandler
                        0x080195c1   0x13a  Code  Gb  form-and-join.o [1]
emberFormAndJoinScanCompleteHandler
                        0x08019555    0x6c  Code  Gb  form-and-join.o [1]
emberFormAndJoinTick    0x08016ff3     0x8  Code  Gb  form-and-join-node-adapter.o [1]
emberFragmentWindowSize
                        0x2000274e     0x1  Data  Gb  ember-configuration.o [1]
emberGenerateRandomKey  0x08008585    0x12  Code  Gb  ember-stack-common.o [16]
emberGetAddressTableRemoteEui64
                        0x08014d1b    0x1c  Code  Gb  address-table.o [16]
emberGetAddressTableRemoteNodeId
                        0x08014d37     0xe  Code  Gb  address-table.o [16]
emberGetBinding         0x08017337    0x16  Code  Gb  binding-table.o [4]
emberGetChildData       0x0800bb45    0x58  Code  Gb  child.o [16]
emberGetEndpoint        0x08008617     0x8  Code  Gb  ember-configuration.o [1]
emberGetEndpointCluster
                        0x08008659    0x34  Code  Gb  ember-configuration.o [1]
emberGetEndpointDescription
                        0x0800861f    0x3a  Code  Gb  ember-configuration.o [1]
emberGetExtendedPanId   0x0800f721    0x16  Code  Gb  association.o [16]
emberGetExtendedTimeout
                        0x08014f2b    0x34  Code  Gb  address-table.o [16]
emberGetKey             0x08016699    0xf0  Code  Gb  aps-keys.o [14]
emberGetLastHopLqi      0x080170c9     0x4  Code  Gb  zigbee-dispatch.o [16]
emberGetLastHopRssi     0x080170cd     0x2  Code  Gb  zigbee-dispatch.o [16]
emberGetLinkedBuffersByte
                        0x08007f4f     0xa  Code  Gb  packet-buffer.o [16]
emberGetLinkedBuffersLowHighInt16u
                        0x080080b5    0x14  Code  Gb  packet-buffer.o [16]
emberGetLinkedBuffersPointer
                        0x08007efd    0x32  Code  Gb  packet-buffer.o [16]
emberGetMfgSecurityConfig
                        0x08018675    0x44  Code  Gb  security-config-mfg-3xx.o [14]
emberGetNetworkParameters
                        0x08008521    0x46  Code  Gb  ember-stack-common.o [16]
emberGetNodeId          0x0800e231     0x8  Code  Gb  zigbee-stack.o [16]
emberGetNodeType        0x0800f6f5    0x2c  Code  Gb  association.o [16]
emberGetPanId           0x0800e241     0x8  Code  Gb  zigbee-stack.o [16]
emberGetRadioChannel    0x080085cb     0x8  Code  Gb  ember-stack-common.o [16]
emberGetRadioPower      0x080085c1     0xa  Code  Gb  ember-stack-common.o [16]
emberGetSender          0x080170d7    0x10  Code  Gb  zigbee-dispatch.o [16]
emberGetTxPowerMode     0x0800259d     0x8  Code  Gb  analogue.o [16]
emberHaveLinkKey        0x08016a3f    0x14  Code  Gb  aps-keys.o [14]
emberIdConflictHandler  0x08008693     0x2  Code  Gb  ember-configuration.o [1]
emberIncomingBootloadMessageHandler
                        0x080154e1   0x2a0  Code  Gb  bootload-utils.o [1]
emberIncomingManyToOneRouteRequestHandler
                        0x08008613     0x2  Code  Gb  ember-configuration.o [1]
emberIncomingMessageHandler
                        0x0800c321   0x170  Code  Gb  sensor.o [1]
emberIncomingRouteErrorHandler
                        0x08008615     0x2  Code  Gb  ember-configuration.o [1]
emberIncomingRouteRecordHandler
                        0x0800860d     0x2  Code  Gb  ember-configuration.o [1]
emberInit               0x0800dfcd    0x76  Code  Gb  zigbee-stack.o [16]
emberJoinNetwork        0x0800e58d    0x50  Code  Gb  association.o [16]
emberJoinableNetworkFoundHandler
                        0x0800c545    0x32  Code  Gb  sensor.o [1]
emberLeaveNetwork       0x08014557    0x14  Code  Gb  leave.o [16]
emberLookupEui64ByNodeId
                        0x0800e1cb    0x66  Code  Gb  zigbee-stack.o [16]
emberLookupNodeIdByEui64
                        0x0800e199    0x32  Code  Gb  zigbee-stack.o [16]
emberMacFilterMatchMessageHandler
                        0x080085ff     0x2  Code  Gb  ember-configuration.o [1]
emberMacIndirectTimeout
                        0x20002758     0x2  Data  Gb  ember-configuration.o [1]
emberMacPassthroughFilterHandler
                        0x08008695     0x4  Code  Gb  ember-configuration.o [1]
emberMacPassthroughFlags
                        0x20002a34     0x1  Data  Gb  mac-header.o [16]
emberMarkTaskIdle       0x08008e39    0x76  Code  Gb  event-control.o [16]
emberMaximumApsPayloadLength
                        0x08012e33    0x12  Code  Gb  application-support.o [16]
emberMessageBufferContents
                        0x08007b35     0xc  Code  Gb  packet-buffer.o [16]
emberMessageSentHandler
                        0x0800c2b3    0x36  Code  Gb  sensor.o [1]
emberMobileNodePollTimeout
                        0x2000275a     0x1  Data  Gb  ember-configuration.o [1]
emberMsToNextEvent      0x08008d97     0x4  Code  Gb  event-control.o [16]
emberMsToNextEventExtended
                        0x08008d4d    0x4a  Code  Gb  event-control.o [16]
emberMulticastTable     0x20002718     0x4  Data  Gb  ember-configuration.o [1]
emberMulticastTableSize
                        0x2000271c     0x1  Data  Gb  ember-configuration.o [1]
emberNetworkFoundHandler
                        0x08018289    0x24  Code  Gb  form-and-join-node-callbacks.o [1]
emberNetworkInit        0x0800e767     0x2  Code  Gb  association.o [16]
emberNetworkInitExtended
                        0x0800e769    0x9a  Code  Gb  association.o [16]
emberNetworkState       0x080084ff     0xc  Code  Gb  ember-stack-common.o [16]
emberOrphanNotificationHandler
                        0x0800868d     0x2  Code  Gb  ember-configuration.o [1]
emberPermitJoining      0x0800e549    0x38  Code  Gb  association.o [16]
emberPollCompleteHandler
                        0x080085fd     0x2  Code  Gb  ember-configuration.o [1]
emberPollHandler        0x0800afd1    0x48  Code  Gb  common.o [1]
emberRadioNeedsCalibratingHandler
                        0x08008699     0x4  Code  Gb  ember-configuration.o [1]
emberRawTransmitCompleteHandler
                        0x08008601     0x2  Code  Gb  ember-configuration.o [1]
emberRemoteDeleteBindingHandler
                        0x08008609     0x4  Code  Gb  ember-configuration.o [1]
emberRemoteSetBindingHandler
                        0x08008605     0x4  Code  Gb  ember-configuration.o [1]
emberRequestLinkKey     0x08016a6b    0xd0  Code  Gb  aps-keys.o [14]
emberReservedMobileChildEntries
                        0x20002fcd     0x1  Data  Gb  ember-configuration.o [1]
emberRunEvents          0x08008d9b    0x2c  Code  Gb  event-control.o [16]
emberRunTask            0x08008dc7    0x28  Code  Gb  event-control.o [16]
emberScanCompleteHandler
                        0x080182ad     0x4  Code  Gb  form-and-join-node-callbacks.o [1]
emberScanErrorHandler   0x0800c539     0xc  Code  Gb  sensor.o [1]
emberScanForNextJoinableNetwork
                        0x080194df    0x76  Code  Gb  form-and-join.o [1]
emberSecurityLevel      0x08008491     0x8  Code  Gb  ember-stack-common.o [16]
emberSendBootloadMessage
                        0x0801010b    0x62  Code  Gb  command.o [16]
emberSendMulticast      0x08012ab7    0x54  Code  Gb  application-support.o [16]
emberSendRemoveDevice   0x08017ebf    0x6e  Code  Gb  trust-center-util.o [14]
emberSendUnicast        0x080129f9    0xb8  Code  Gb  application-support.o [16]
emberSerialBufferTick   0x08005395     0x2  Code  Gb  serial.o [1]
emberSerialFlushRx      0x08005367    0x22  Code  Gb  serial.o [1]
emberSerialGuaranteedPrintf
                        0x0800532b    0x36  Code  Gb  serial.o [1]
emberSerialInit         0x08005125    0x70  Code  Gb  serial.o [1]
emberSerialPrintf       0x08005273    0x10  Code  Gb  serial.o [1]
emberSerialPrintfVarArg
                        0x0800524f    0x24  Code  Gb  serial.o [1]
emberSerialReadAvailable
                        0x08005195    0x16  Code  Gb  serial.o [1]
emberSerialReadByte     0x080051ab    0x8e  Code  Gb  serial.o [1]
emberSerialWaitSend     0x08005309    0x22  Code  Gb  serial.o [1]
emberSerialWriteByte    0x08005239     0xc  Code  Gb  serial.o [1]
emberSerialWriteData    0x08005285    0x84  Code  Gb  serial.o [1]
emberSetAddressTableRemoteEui64
                        0x08014c3d    0x84  Code  Gb  address-table.o [16]
emberSetAddressTableRemoteNodeId
                        0x08014cc1    0x5a  Code  Gb  address-table.o [16]
emberSetExtendedTimeout
                        0x08014f67    0x28  Code  Gb  address-table.o [16]
emberSetInitialSecurityState
                        0x08013011   0x104  Code  Gb  aps-security.o [14]
emberSetLinkedBuffersByte
                        0x08007f59     0xc  Code  Gb  packet-buffer.o [16]
emberSetLinkedBuffersLength
                        0x08007ec3    0x24  Code  Gb  packet-buffer.o [16]
emberSetMessageBufferLength
                        0x08007b41     0xa  Code  Gb  packet-buffer.o [16]
emberSetMessageFlag     0x0800fbbd    0x30  Code  Gb  jit.o [16]
emberSetRadioChannel    0x0800f6ad    0x48  Code  Gb  association.o [16]
emberSetRadioPower      0x080085af    0x12  Code  Gb  ember-stack-common.o [16]
emberSetTxPowerMode     0x080024e1    0xb4  Code  Gb  analogue.o [16]
emberStackIsUp          0x0800850b    0x16  Code  Gb  ember-stack-common.o [16]
emberStackStatusHandler
                        0x0800c49f    0x5a  Code  Gb  sensor.o [1]
emberStackTokenChangedHandler
                        0x08008691     0x2  Code  Gb  ember-configuration.o [1]
emberStartScan          0x08010211    0xa2  Code  Gb  scan.o [16]
emberStoreLowHighInt16u
                        0x080080ad     0x8  Code  Gb  packet-buffer.o [16]
emberSwitchNetworkKeyHandler
                        0x0800c4ff     0xc  Code  Gb  sensor.o [1]
emberTaskInit           0x08008df1    0x46  Code  Gb  event-control.o [16]
emberTick               0x0800e045    0xe8  Code  Gb  zigbee-stack.o [16]
emberTrustCenterJoinHandler
                        0x080085e7    0x14  Code  Gb  ember-configuration.o [1]
emberTrustCenterLinkKeyRequestPolicy
                        0x20002fca     0x1  Data  Gb  ember-configuration.o [1]
emberUnusedPanIdFoundHandler
                        0x0800c577     0x2  Code  Gb  sensor.o [1]
emberVersion            0x0801bd58     0x8  Data  Gb  ember-version.o [16]
emberZigbeeKeyEstablishmentHandler
                        0x080085fb     0x2  Code  Gb  ember-configuration.o [1]
emberZigbeeLeave        0x080145f7     0x8  Code  Gb  leave.o [16]
emberZigbeeRemoveChild  0x080147c1    0x3c  Code  Gb  leave.o [16]
encryptBytes            0x080117e7    0x48  Code  Lc  crypto.o [16]
encryptNonce            0x0801155f    0x24  Code  Lc  crypto.o [16]
encryptPayload          0x0801170f    0xd2  Code  Lc  crypto.o [16]
endpointDescription     0x0801bac8     0x8  Data  Gb  sensor.o [1]
energyScanComplete      0x08019429    0x72  Code  Lc  form-and-join.o [1]
energyScanMaxRssiDetected
                        0x2000294f     0x1  Data  Lc  scan.o [16]
energyScanResultsBuffer
                        0x2000294e     0x1  Data  Lc  scan.o [16]
entryScore              0x08014975    0x20  Code  Lc  neighbor-exchange.o [16]
erased                  0x20002fbc     0x1  Data  Lc  sim-eeprom-internal.o [8]
eventStartTime          0x20002f58     0x4  Data  Lc  retry.o [16]
expectedBlockNumber     0x20002693     0x1  Data  Gb  bootload-utils.o [1]
extendedPanIdCache      0x20002b7c     0x8  Data  Lc  form-and-join.o [1]
fastXtalStartup         0x2000296c     0x1  Data  Gb  clocks.o [8]
fault                   0x0801aeb7          Code  Gb  faults.o [1]
fibToEmberStatus        0x08008924     0x8  Data  Lc  flash.o [8]
filterForceReCal        0x200028ce     0x1  Data  Gb  analogue.o [16]
findBroadcastTableEntry
                        0x080109d9    0x46  Code  Lc  broadcast.o [16]
findChildIndex          0x0800b903    0x60  Code  Lc  child.o [16]
findDatagramDestination
                        0x08016101   0x112  Code  Lc  aps-retry.o [16]
findLongAddressEntry    0x08014d45    0x4a  Code  Lc  address-table.o [16]
findNeighborIndex       0x08010e77    0x36  Code  Lc  neighbor.o [16]
findRouteTableEntry     0x0801080d    0x2a  Code  Lc  route-table.o [16]
finishNetworkShutdown   0x08014631    0x7e  Code  Lc  leave.o [16]
finishPendingAckedMessage
                        0x080162a1   0x188  Code  Lc  aps-retry.o [16]
finishSetChannel        0x0800f64f    0x44  Code  Lc  association.o [16]
flashEraseIsActive      0x20002fdd     0x1  Data  Gb  flash.o [8]
forceSleepTmrCnt        0x20002c80     0x1  Data  Gb  sleep.o [1]
formAndJoinEvents       0x08017008    0x10  Data  Lc  form-and-join-node-adapter.o [1]
formAndJoinGetNetworkPointer
                        0x08016fa7     0xc  Code  Gb  form-and-join-node-adapter.o [1]
formAndJoinReleaseBuffer
                        0x08016fcf    0x18  Code  Gb  form-and-join-node-adapter.o [1]
formAndJoinScanType     0x20002b70     0x1  Data  Lc  form-and-join.o [1]
formAndJoinSetBufferLength
                        0x08016fbb    0x14  Code  Gb  form-and-join-node-adapter.o [1]
formAndJoinSetCleanupTimeout
                        0x08016fb3     0x8  Code  Gb  form-and-join-node-adapter.o [1]
formAndJoinStackProfile
                        0x08016fa1     0x6  Code  Gb  form-and-join-node-adapter.o [1]
formatFixed             0x0800b267    0x5a  Code  Gb  common.o [1]
forwardTunneledCommand  0x08013315    0xa6  Code  Lc  aps-security.o [14]
fragmentDelay           0x20002a12     0x1  Data  Lc  aps-retry.o [16]
framePendingSetInOutgoingAck
                        0x20002cee     0x2  Data  Lc  phy.o [16]
freePtr                 0x20002fbe     0x2  Data  Lc  sim-eeprom-internal.o [8]
freelist                0x200028e6     0x1  Data  Lc  packet-buffer.o [16]
generateCreatorInfo     0x080058dd    0x22  Code  Lc  sim-eeprom-internal.o [8]
getBeaconPayload        0x0800e401    0x44  Code  Lc  association.o [16]
getChildTokenData       0x0800be05    0x46  Code  Lc  child.o [16]
getMultiNetworkTokenAddress
                        0x080182b5    0x24  Code  Lc  token-cache.o [16]
getNonvolatileBinding   0x080171c1    0x2a  Code  Lc  binding-table.o [4]
getRandomBackoff        0x0800365d    0x40  Code  Gb  phy-common.o [16]
getTrustCenterToken     0x0801688b     0xc  Code  Lc  aps-keys.o [14]
globalBuffer            0x2000280c    0x80  Data  Gb  sensor.o [1]
gpioCfgPowerDown        0x20002784     0xc  Data  Gb  micro.o [1]
gpioCfgPowerUp          0x20002778     0xc  Data  Gb  micro.o [1]
gpioOutPowerDown        0x20002770     0x4  Data  Gb  micro.o [1]
gpioOutPowerUp          0x2000276c     0x4  Data  Gb  micro.o [1]
gpioRadioPowerBoardMask
                        0x20002790     0x4  Data  Gb  micro.o [1]
guardRegionPlaceHolder  0x20000580    0x20  Data  Gb  cstartup-iar-common.o [1]
halAdcCalibrate         0x08002375    0x4a  Code  Gb  adc.o [1]
halAdcIsr               0x08002191    0x62  Code  Gb  adc.o [1]
halAppAddressTable      0x08002000    0xac  Data  Gb  cstartup-iar-common.o [1]
halBaseBandIsr          0x0801af28          Code  Wk  isr-stubs.o [1]
halBootloaderAddressTable
                        0x08000000    0x54  Data  Gb  cstartup-iar-common.o [1]
halBusFaultIsr          0x0801aead          Code  Gb  faults.o [1]
halButtonIsr            0x0800c9a9    0x1e  Code  Gb  sensor.o [1]
halButtonPinState       0x080079d1    0x22  Code  Gb  button.o [1]
halClearLed             0x0800de5f    0x26  Code  Gb  led.o [1]
halCommonBlockUntilXtal
                        0x0800417d    0x62  Code  Gb  clocks.o [8]
halCommonCalibratePads  0x08002c69    0x20  Code  Gb  micro-common-internal.o [8]
halCommonCrc16          0x0800df7d    0x24  Code  Gb  crc.o [1]
halCommonDelayMicroseconds
                        0x08002d5b    0x28  Code  Gb  micro-common-internal.o [8]
halCommonDelayMilliseconds
                        0x08002d9d    0x1c  Code  Gb  micro-common-internal.o [8]
halCommonGetInt16uMillisecondTick
                        0x0800892d     0xa  Code  Gb  system-timer.o [8]
halCommonGetInt16uQuarterSecondTick
                        0x08008937     0xc  Code  Gb  system-timer.o [8]
halCommonGetInt32uMillisecondTick
                        0x08008943    0x30  Code  Gb  system-timer.o [8]
halCommonGetRandom      0x08007031    0x1c  Code  Gb  random.o [1]
halCommonIdleForMilliseconds
                        0x08008981    0x72  Code  Gb  system-timer.o [8]
halCommonMemCompare     0x08005605    0x1c  Code  Gb  mem-util.o [1]
halCommonMemCopy        0x08005571    0x86  Code  Gb  mem-util.o [1]
halCommonMemPGMCompare  0x08005621    0x1c  Code  Gb  mem-util.o [1]
halCommonMemSet         0x080055f7     0xe  Code  Gb  mem-util.o [1]
halCommonSwitchToXtal   0x080040dd    0x4a  Code  Gb  clocks.o [8]
halCommonTryToSwitchToXtal
                        0x08004003    0xda  Code  Gb  clocks.o [8]
halConvertValueToVolts  0x080023c1    0x4e  Code  Gb  adc.o [1]
halDebugIsr             0x0800837b    0xca  Code  Gb  debug-jtag.o [16]
halDebugMonitorIsr      0x0801aeb3          Code  Gb  faults.o [1]
halEntryPoint           0x0801af2d     0xc  Code  Gb  cstartup-iar.o [8]
halEntryPointMain       0x0801af39   0x12a  Code  Gb  cstartup-iar.o [8]
halFixedAddressTable    0x08040000    0x2c  Data  Gb  cstartup-iar-common.o [1]
halGetBootloaderVersion
                        0x080198ad     0x6  Code  Gb  bootloader-interface.o [1]
halGetEm2xxResetInfo    0x0800440d    0x42  Code  Gb  micro.o [1]
halGetExtendedResetInfo
                        0x08007b13     0x6  Code  Gb  cstartup-iar-common.o [1]
halGetRadioHoldOff      0x08004455     0x6  Code  Gb  micro.o [1]
halGetResetInfo         0x08007b0b     0x8  Code  Gb  cstartup-iar-common.o [1]
halGetResetString       0x080043fd    0x10  Code  Gb  micro.o [1]
halGetStandaloneBootloaderVersion
                        0x0801718d    0x14  Code  Gb  bootloader-interface-standalone.o [1]
halHardFaultIsr         0x0801aeab          Code  Gb  faults.o [1]
halInit                 0x08004235    0x58  Code  Gb  micro.o [1]
halInternalAssertFailed
                        0x08002a1d    0x2e  Code  Gb  diagnostic.o [1]
halInternalAssertFault  0x08002a19     0x4  Code  Lc  diagnostic.o [1]
halInternalCStackBottom
                        0x200028fc     0x4  Data  Lc  micro-internal.o [8]
halInternalCalibrateFastRc
                        0x08003f97    0x24  Code  Gb  clocks.o [8]
halInternalCalibrateSlowRc
                        0x08003f33    0x64  Code  Gb  clocks.o [8]
halInternalClassifyReset
                        0x08007aa5    0x66  Code  Gb  cstartup-iar-common.o [1]
halInternalConfigFlashAccess
                        0x08003e79     0xa  Code  Gb  clocks.o [8]
halInternalCrashHandler
                        0x08002a4b   0x1ec  Code  Gb  diagnostic.o [1]
halInternalDisableMPU   0x08008767     0xa  Code  Gb  mpu.o [1]
halInternalDisableWatchDog
                        0x08004aff    0x12  Code  Gb  micro-common.o [1]
halInternalEnableMPU    0x08008731     0x2  Code  Gb  mpu.o [1]
halInternalEnableWatchDog
                        0x08004ae9     0xe  Code  Gb  micro-common.o [1]
halInternalFlashBlockRead
                        0x080057fd    0x28  Code  Lc  sim-eeprom-internal.o [8]
halInternalFlashErase   0x0800882d    0x74  Code  Gb  flash.o [8]
halInternalFlashWrite   0x080088a1    0x6e  Code  Gb  flash.o [8]
halInternalForceWriteUartData
                        0x080077a5    0x30  Code  Gb  uart.o [1]
halInternalGetCStackBottom
                        0x0800551b     0x6  Code  Gb  micro-internal.o [8]
halInternalGetMfgTokenData
                        0x08002ead    0x5c  Code  Gb  mfg-token.o [1]
halInternalGetTokenData
                        0x08002fb3    0x22  Code  Gb  token.o [1]
halInternalGetVreg      0x08002cd7    0x7a  Code  Gb  micro-common-internal.o [8]
halInternalIdleSleep    0x080076d5          Code  Gb  context-switch.o [8]
halInternalIncrementCounterToken
                        0x08003023     0xe  Code  Gb  token.o [1]
halInternalInitAdc      0x08002245    0x4c  Code  Gb  adc.o [1]
halInternalInitButton   0x08007969    0x68  Code  Gb  button.o [1]
halInternalInitCStackRegion
                        0x08005465    0x1c  Code  Gb  micro-internal.o [8]
halInternalInitMgmtIsrLo
                        0x08003fbb    0x16  Code  Gb  clocks.o [8]
halInternalLoadMPU      0x08008733    0x34  Code  Gb  mpu.o [1]
halInternalResetWatchDog
                        0x08004af7     0x2  Code  Gb  micro-common.o [1]
halInternalRestartUart  0x080078dd     0x2  Code  Gb  uart.o [1]
halInternalSetMPUGuardRegionStart
                        0x08008771    0x20  Code  Gb  mpu.o [1]
halInternalSetRegTrim   0x08002c89    0x4e  Code  Gb  micro-common-internal.o [8]
halInternalSetTokenData
                        0x08002fd5    0x4e  Code  Gb  token.o [1]
halInternalSimEeGetData
                        0x08005c95    0x7a  Code  Gb  sim-eeprom-internal.o [8]
halInternalSimEeIncrementCounter
                        0x08006175    0x84  Code  Gb  sim-eeprom-internal.o [8]
halInternalSimEeSetData
                        0x08005f55   0x17e  Code  Gb  sim-eeprom-internal.o [8]
halInternalSimEeStartup
                        0x08005645    0xd8  Code  Gb  sim-eeprom.o [1]
halInternalSimEeStartupCore
                        0x0800595f   0x336  Code  Gb  sim-eeprom-internal.o [8]
halInternalSleep        0x08007059   0x58a  Code  Gb  sleep.o [1]
halInternalStartSystemTimer
                        0x08004b1f    0x4c  Code  Gb  micro-common.o [1]
halInternalStartUartTx  0x08007765    0x30  Code  Gb  uart.o [1]
halInternalStopUartTx   0x08007795    0x10  Code  Gb  uart.o [1]
halInternalSwitchToXtal24M
                        0x08003fd1    0x32  Code  Gb  clocks.o [8]
halInternalSysReset     0x080053d9    0x40  Code  Gb  micro-internal.o [8]
halInternalUart1RxIsr   0x080077ed    0xb8  Code  Gb  uart.o [1]
halInternalUart1TxIsr   0x080078a7    0x36  Code  Gb  uart.o [1]
halInternalUartInit     0x080076e1    0x84  Code  Gb  uart.o [1]
halInternalUartRxPump   0x080078a5     0x2  Code  Gb  uart.o [1]
halInternalWaitUartTxComplete
                        0x080077d5    0x16  Code  Gb  uart.o [1]
halInternalWakeEvent    0x20002c84     0x4  Data  Lc  sleep.o [1]
halInternalWakeOnLedOrRho
                        0x20002775     0x1  Data  Gb  micro.o [1]
halInternalWatchDogEnabled
                        0x08004b11     0xe  Code  Gb  micro-common.o [1]
halIrqAIsr              0x0801af28          Code  Wk  isr-stubs.o [1]
halIrqBIsr              0x080079f3    0x42  Code  Gb  button.o [1]
halIrqCIsr              0x08007a51    0x4c  Code  Gb  button.o [1]
halIrqDIsr              0x0800445b    0x2a  Code  Gb  micro.o [1]
halLaunchStandaloneBootloader
                        0x08017135    0x58  Code  Gb  bootloader-interface-standalone.o [1]
halManagementIsr        0x08005419    0x4a  Code  Gb  micro-internal.o [8]
halMeasureVdd           0x08004a87    0x42  Code  Gb  caladc.o [8]
halMemoryFaultIsr       0x0801aeaf          Code  Gb  faults.o [1]
halNmiIsr               0x0801aea9          Code  Gb  faults.o [1]
halPendSvIsr            0x0801b151          Code  Gb  context-switch.o [8]
halPendSvSaveContext    0x20002e04          Data  Gb  context-switch.o [8]
halRadioHoldOffIsActive
                        0x0800444f     0x6  Code  Gb  micro.o [1]
halReadAdcBlocking      0x0800235d    0x18  Code  Gb  adc.o [1]
halReboot               0x0800428d     0x8  Code  Gb  micro.o [1]
halRequestAdcData       0x080022df    0x7e  Code  Gb  adc.o [1]
halReserved07Isr        0x0801af28          Code  Wk  isr-stubs.o [1]
halReserved08Isr        0x0801af28          Code  Wk  isr-stubs.o [1]
halReserved09Isr        0x0801af28          Code  Wk  isr-stubs.o [1]
halReserved10Isr        0x0801af28          Code  Wk  isr-stubs.o [1]
halReserved13Isr        0x0801af28          Code  Wk  isr-stubs.o [1]
halResetInfo            0x20000000    0x98  Data  Gb  cstartup-iar-common.o [1]
halSc1Isr               0x080078df    0x2e  Code  Gb  uart.o [1]
halSc2Isr               0x0801af28          Code  Wk  isr-stubs.o [1]
halSc3Isr               0x0801af28          Code  Wk  isr-stubs.o [1]
halSc4Isr               0x0801af28          Code  Wk  isr-stubs.o [1]
halSecurityIsr          0x0801af28          Code  Wk  isr-stubs.o [1]
halSetLed               0x0800de39    0x26  Code  Gb  led.o [1]
halSimEepromCallback    0x0800869d    0x6c  Code  Gb  ember-configuration.o [1]
halSimEepromErasePage   0x080061f9    0x72  Code  Gb  sim-eeprom-internal.o [8]
halSleep                0x08007637    0x10  Code  Gb  sleep.o [1]
halSleepTimerIsr        0x08008973     0xe  Code  Gb  system-timer.o [8]
halSleepWithOptions     0x080075f5    0x42  Code  Gb  sleep.o [1]
halStackCancelSymbolDelayA
                        0x0800df0f    0x1c  Code  Gb  symbol-timer.o [16]
halStackDebugActive     0x08008281     0x4  Code  Gb  debug-jtag.o [16]
halStackDebugPutBuffer  0x08008369    0x12  Code  Gb  debug-jtag.o [16]
halStackGetInt32uSymbolTick
                        0x0800df35     0x4  Code  Gb  symbol-timer.o [16]
halStackIndicateActivity
                        0x0800dec9     0xe  Code  Gb  led.o [1]
halStackInitTokens      0x08002f15    0x9e  Code  Gb  token.o [1]
halStackMacTimerIsr     0x08006ee9    0x34  Code  Gb  mac-em250.o [16]
halStackModifyCStackSize
                        0x08005481    0x9a  Code  Gb  micro-internal.o [8]
halStackOrderInt16uSymbolDelayA
                        0x0800ded9    0x36  Code  Gb  symbol-timer.o [16]
halStackProcessBootCount
                        0x080043f7     0x6  Code  Gb  micro.o [1]
halStackRadioPowerDownBoard
                        0x0800432d    0x5c  Code  Gb  micro.o [1]
halStackRadioPowerUpBoard
                        0x0800438f    0x5c  Code  Gb  micro.o [1]
halStackReceiveVuartMessage
                        0x080077eb     0x2  Code  Gb  uart.o [1]
halStackSeedRandom      0x08007009    0x18  Code  Gb  random.o [1]
halStackSymbolDelayAIsr
                        0x0800a835    0x48  Code  Gb  mac.o [16]
halStartAdcConversion   0x08002291    0x4e  Code  Gb  adc.o [1]
halSvCallIsr            0x0801af28          Code  Wk  isr-stubs.o [1]
halSysTickIsr           0x08004135    0x48  Code  Gb  clocks.o [8]
halTick                 0x08002db9     0x2  Code  Gb  micro-common-internal.o [8]
halTimer1Isr            0x0801ae11    0x88  Code  Gb  buzzer.o [1]
halTimer2Isr            0x0801af28          Code  Wk  isr-stubs.o [1]
halToggleLed            0x0800de85    0x38  Code  Gb  led.o [1]
halTriggerContextRestore
                        0x0801b10d          Code  Gb  context-switch.o [8]
halUsageFaultIsr        0x0801aeb1          Code  Gb  faults.o [1]
halUsbIsr               0x0801af29          Code  Wk  isr-stubs.o [1]
handleApplicationKeyRequest
                        0x08018021   0x10a  Code  Lc  trust-center-util.o [14]
handleNonAddressConflictRouteError
                        0x080144d3    0x50  Code  Gb  route-error.o [16]
handleSinkAdvertise     0x0800c8eb    0xae  Code  Gb  sensor.o [1]
handleSinkQuery         0x0800ae25    0x8a  Code  Gb  common.o [1]
idleDelayMicroseconds   0x08003e83    0xb0  Code  Gb  clocks.o [8]
ignoreExtendedPanId     0x20002b72     0x1  Data  Lc  form-and-join.o [1]
incomingMfglibMessage   0x08006d35    0x30  Code  Lc  mac-receive.o [16]
indexIntoBuffers        0x08007ee7    0x14  Code  Lc  packet-buffer.o [16]
initial_lcd             0x08016df9    0x86  Code  Gb  lcd.o [1]
initializeChildStatus   0x0800b87d    0x26  Code  Lc  child.o [16]
initializeNonceFromAuxFrame
                        0x08011835    0x56  Code  Lc  crypto.o [16]
initializeNonceFromBuffer
                        0x0801188b    0x44  Code  Lc  crypto.o [16]
initializeRemoteNode    0x0801734d    0x2e  Code  Lc  binding-table.o [4]
insertNeighbor          0x08010f39   0x110  Code  Lc  neighbor.o [16]
isCompatibleStackProfile
                        0x0800e355    0x24  Code  Gb  association.o [16]
isMyChild               0x0800b1f1    0x36  Code  Gb  common.o [1]
isMyNeighbor            0x0800b263     0x4  Code  Gb  common.o [1]
isTheSameEui64          0x080157d1    0x10  Code  Lc  bootload-utils.o [1]
jitMaskMulticastHello   0x200026d2     0x2  Data  Gb  common.o [1]
jitMessageApsFrame      0x200026c4     0xc  Data  Gb  common.o [1]
jitMessageMulticastHello
                        0x200026d0     0x1  Data  Gb  common.o [1]
jitMessageStatus        0x0800b05b    0x2c  Code  Gb  common.o [1]
jitMessageStatusPrintMessageData
                        0x0800b019    0x42  Code  Gb  common.o [1]
joinAttemptFailed       0x0800e4bb    0x62  Code  Lc  association.o [16]
joinData                0x20002910    0x18  Data  Lc  association.o [16]
joinNetworkQuietly      0x0800e71d    0x4a  Code  Lc  association.o [16]
lastAgingTime           0x20002e32     0x2  Data  Lc  broadcast.o [16]
lastAgingTimeQs         0x20002fc2     0x2  Data  Lc  route-table.o [16]
lastEventTimeMS         0x200029e4     0x2  Data  Lc  mac-indirect.o [16]
lastEventTimeMs         0x20002a1c     0x2  Data  Lc  aps-retry.o [16]
lastReportTimeMin       0x200029ef     0x1  Data  Lc  zdo-channel.o [16]
lastTransmitPacketIsDataPoll
                        0x2000299c     0x1  Data  Gb  phy-common.o [16]
lastTxSfdTime           0x200029a8     0x4  Data  Gb  phy-common.o [16]
lastVcoCalChannel       0x20002fe3     0x1  Data  Lc  analogue-vco.o [16]
lastVcoValue            0x20002fe4     0x1  Data  Lc  analogue-vco.o [16]
lcd_address             0x08016e83    0x1c  Code  Gb  lcd.o [1]
leaveReason             0x20002978     0x1  Data  Lc  leave.o [16]
left                    0x20002fbd     0x1  Data  Lc  sim-eeprom-internal.o [8]
libraryEnabled          0x20002a32     0x1  Data  Lc  packet-validate.o [12]
lnaForceReCal           0x200028d2     0x2  Data  Gb  analogue.o [16]
longIndirectPool        0x200029dc     0x4  Data  Lc  mac-indirect.o [16]
macBufferStatus         0x200029ba     0x1  Data  Lc  mac-arbiter.o [16]
macCheckIncomingQueue   0x08006b41   0x1c2  Code  Lc  mac-receive.o [16]
macCommandPacketIsValid
                        0x08013e41    0x48  Code  Lc  packet-validate.o [12]
macCommandSizes         0x08014094     0xc  Data  Lc  packet-validate.o [12]
macIsInactive           0x200029ee     0x1  Data  Lc  zdo-channel.o [16]
macSendShortIdCommand   0x0800fe41    0x36  Code  Lc  command.o [16]
main                    0x0800bf71   0x1d4  Code  Gb  sensor.o [1]
mainSinkFound           0x200027ed     0x1  Data  Gb  sensor.o [1]
managePollTxRxTurnaround
                        0x080035dd    0x1c  Code  Gb  phy-common.o [16]
matchingPoolAddress     0x080066f5    0x52  Code  Lc  mac-indirect.o [16]
maybeSendAddressResponse
                        0x08017a5d   0x180  Code  Lc  zigbee-device-util.o [16]
maybeSendBasicAck       0x08012e8f    0x20  Code  Lc  application-support.o [16]
memchr                  0x0801a281          Code  Gb  memchr.o [13]
mobileChildData         0x200028e9     0x1  Data  Lc  child.o [16]
mobileChildDataIndex    0x0800bd2b    0x40  Code  Lc  child.o [16]
mobileChildDataLength   0x200028ec     0x2  Data  Lc  child.o [16]
mobileJoinApsFrame      0x0800a698     0x8  Data  Lc  network.o [16]
modDacForceReCal        0x200028d0     0x2  Data  Gb  analogue.o [16]
mpuConfig               0x20002794    0x40  Data  Lc  mpu.o [1]
mtorFlags               0x0801a0fc     0x8  Data  Lc  zigbee-device.o [16]
networkCommandBaseSizes
                        0x080140a0     0xc  Data  Lc  packet-validate.o [12]
networkCommandPacketIsValid
                        0x08013ed3    0x9c  Code  Lc  packet-validate.o [12]
networkCount            0x20002b73     0x1  Data  Lc  form-and-join.o [1]
networkDecrypt          0x08009717   0x16e  Code  Lc  network.o [16]
networkInitData         0x20002930     0x4  Data  Lc  association.o [16]
networkPacketIsValid    0x08013e89    0x4a  Code  Lc  packet-validate.o [12]
networkSubmitUnicast    0x0800961b    0x84  Code  Lc  network.o [16]
newChannel              0x20002fd8     0x1  Data  Lc  association.o [16]
newNwkUpdateId          0x200029e9     0x1  Data  Lc  zdo-channel.o [16]
newPanId                0x20002a2c     0x2  Data  Lc  management.o [16]
nextApsFrameCounter     0x20002f9c     0x4  Data  Lc  crypto.o [16]
nextChannel             0x20002949     0x1  Data  Lc  scan.o [16]
nextIncomingRssi        0x20002968     0x4  Data  Lc  scan.o [16]
nextOutgoingRssi        0x20002964     0x4  Data  Lc  scan.o [16]
nodeSecurityInit        0x0801665b    0x3c  Code  Gb  node.o [1]
nodeThatToldUsToLeave   0x20002984     0x2  Data  Lc  leave.o [16]
normalOrBoostTokSerialRegId
                        0x08002ea0     0xc  Data  Gb  analogue-cell-bias.o [16]
noteDiscoveryTimeout    0x08010681    0x6a  Code  Lc  route-table.o [16]
notePreconfiguredKeyType
                        0x08013b9d    0x22  Code  Lc  aps-security.o [14]
notifyTrustCenter       0x08014799    0x28  Code  Lc  leave.o [16]
nullEui                 0x08002f0c     0x8  Data  Lc  mfg-token.o [1]
numberOfFailedDataMessages
                        0x200027f3     0x1  Data  Gb  sensor.o [1]
nwkSequenceNumber       0x20002940     0x1  Data  Lc  application-support.o [16]
oneScanDone             0x200029f0     0x1  Data  Lc  zdo-channel.o [16]
originalChannel         0x2000294c     0x1  Data  Lc  scan.o [16]
originalPanId           0x20002958     0x2  Data  Lc  scan.o [16]
originalRadioIdleMode   0x2000294d     0x1  Data  Lc  scan.o [16]
paPresent               0x200028da     0x1  Data  Lc  analogue.o [16]
packetChecks            0x080140c4    0x30  Data  Lc  packet-validate.o [12]
panConflictMeter        0x20002a20     0x1  Data  Lc  management.o [16]
parentLaunchBootload    0x20002b40     0x1  Data  Gb  common.o [1]
pendingAckedCount       0x20002a11     0x1  Data  Lc  aps-retry.o [16]
permitJoining           0x20002ccc     0x1  Data  Lc  association.o [16]
phyToMacQueueLength     0x20002a00     0x2  Data  Lc  mac-receive.o [16]
phyToMacQueueLengthReached
                        0x20002a04     0x2  Data  Lc  mac-receive.o [16]
pollState               0x200029bc     0x1  Data  Lc  mac-arbiter.o [16]
powerLevelSettings      0x08002a04     0x4  Data  Gb  analogue.o [16]
powers10                0x080053b4    0x24  Data  Lc  serial.o [1]
previousLoValue         0x20002970     0x1  Data  Gb  clocks.o [8]
previousTemperature     0x20002fe0     0x1  Data  Lc  phy.o [16]
previousTemperatureAvailable
                        0x20002fe1     0x1  Data  Lc  phy.o [16]
printAddressTable       0x0800ad1f    0xc2  Code  Gb  common.o [1]
printChildTable         0x0800b087    0x6a  Code  Gb  common.o [1]
printDataMode           0x0800ce49    0x34  Code  Gb  sensor.o [1]
printEUI64              0x0800ade1    0x1e  Code  Gb  common.o [1]
printExtendedPanId      0x0800abfb    0x24  Code  Gb  common.o [1]
printHelp               0x0800cba3   0x112  Code  Gb  sensor.o [1]
printNetInfo            0x0800bf2d    0x26  Code  Gb  sensor.o [1]
printNodeInfo           0x0800ac1f    0xa8  Code  Gb  common.o [1]
processDeviceAnnounceAndFindIdConflict
                        0x08009ea9    0xbe  Code  Lc  network.o [16]
processKeyCommand       0x0801386d   0x2a2  Code  Lc  aps-security.o [14]
processRxAddressReceiveCompleteIsr
                        0x080030f5    0xec  Code  Lc  phy.o [16]
processRxPacketCompleteIsr
                        0x080031e1    0xe4  Code  Lc  phy.o [16]
processScanRequest      0x0801776d   0x118  Code  Lc  zdo-channel.o [16]
processSerialInput      0x0800c9dd   0x1bc  Code  Gb  sensor.o [1]
processZigbeePacket     0x080099e1   0x39a  Code  Lc  network.o [16]
ptiEnabled              0x20002993     0x1  Data  Lc  phy-common.o [16]
ptrCache                0x20002c24    0x5c  Data  Gb  sim-eeprom.o [1]
ptrCacheLoc             0x080058ff    0x22  Code  Lc  sim-eeprom-internal.o [8]
pushInt16u              0x08011b6d     0xc  Code  Lc  zigbee-packet-header.o [16]
quietlyEraseChild       0x0800bc89    0x3a  Code  Lc  child.o [16]
radioCheckCrc           0x200029ac     0x1  Data  Gb  phy-common.o [16]
radioCurrentPowerStatus
                        0x2000299d     0x1  Data  Gb  phy-common.o [16]
radioIdlePowerState     0x20002998     0x1  Data  Lc  phy-common.o [16]
radioTransmitConfig     0x200028f0     0x8  Data  Gb  zigbee-stack.o [16]
reCalibrateVref         0x200028db     0x1  Data  Gb  analogue.o [16]
readAndPrintSensorData  0x0800cd3d    0x9e  Code  Gb  sensor.o [1]
readCounterValue        0x08006141    0x34  Code  Lc  sim-eeprom-internal.o [8]
readNetworkTokens       0x0800f615    0x2e  Code  Lc  association.o [16]
readNodeData            0x0800f643     0xc  Code  Lc  association.o [16]
readTokenData           0x0800587d    0x42  Code  Lc  sim-eeprom-internal.o [8]
recalculateMacDataPendingBitField
                        0x0800674f    0x42  Code  Lc  mac-indirect.o [16]
recyclePendingAckedMessages
                        0x08015ce9    0x48  Code  Lc  aps-retry.o [16]
reenqueueSubmitHead     0x08010d2b    0x82  Code  Lc  retry.o [16]
rejoinUpdateDeviceStatusValues
                        0x0800ebb4     0x8  Data  Lc  association.o [16]
removeFromBuffer        0x08009439    0x2e  Code  Lc  network.o [16]
requestKeyBuffer        0x20002a2f     0x1  Data  Lc  trust-center-util.o [14]
respondTimer            0x200027ec     0x1  Data  Gb  sensor.o [1]
retryEntries            0x20002f5c    0x30  Data  Lc  retry.o [16]
rhoActive               0x20002774     0x1  Data  Lc  micro.o [1]
rhoEnabled              0x20002776     0x1  Data  Lc  micro.o [1]
rmwRadioPowerCfgReg     0x080042b9    0x3e  Code  Lc  micro.o [1]
rmwRadioPowerOutReg     0x080042f7    0x36  Code  Lc  micro.o [1]
routeRequestId          0x20002fed     0x1  Data  Lc  route-discovery.o [16]
routeTableTimer         0x20002fc0     0x1  Data  Lc  route-table.o [16]
runEventHandler         0x08015eed   0x122  Code  Lc  aps-retry.o [16]
rxBuffer                0x20002cf0   0x114  Data  Lc  phy.o [16]
sampleVcoTune           0x0800467d    0x44  Code  Gb  analogue-mod-dac.o [16]
savedMSP                0x20002e08          Data  Gb  context-switch.o [8]
savedResetCause         0x20002a76     0x2  Data  Lc  cstartup-iar-common.o [1]
scanChannelMask         0x20002960     0x4  Data  Lc  scan.o [16]
scanDuration            0x2000294a     0x1  Data  Lc  scan.o [16]
scanFrameCounter        0x2000295c     0x4  Data  Lc  scan.o [16]
scanRequestHeader       0x200029eb     0x1  Data  Lc  zdo-channel.o [16]
scanResults             0x200029ec     0x1  Data  Lc  zdo-channel.o [16]
scanTransmitRetries     0x2000294b     0x1  Data  Lc  scan.o [16]
scansRemaining          0x200029ed     0x1  Data  Lc  zdo-channel.o [16]
seed0                   0x200027d4     0x2  Data  Gb  random.o [1]
seed1                   0x200027d6     0x2  Data  Gb  random.o [1]
sendAckedUnicast        0x0801600f    0xe8  Code  Lc  aps-retry.o [16]
sendApplicationKeys     0x0801812b    0xe6  Code  Lc  trust-center-util.o [14]
sendBootloaderLaunchMessage
                        0x0800b1bf    0x32  Code  Gb  common.o [1]
sendData                0x0800c685   0x1a8  Code  Gb  sensor.o [1]
sendDataCountdown       0x200027f1     0x1  Data  Gb  sensor.o [1]
sendFromSource          0x20002942     0x2  Data  Lc  application-support.o [16]
sendLeaveCommand        0x080147fd    0x72  Code  Lc  leave.o [16]
sendMulticastHello      0x0800c85f    0x76  Code  Gb  sensor.o [1]
sendNeighborExchange    0x080148c9    0xac  Code  Lc  neighbor-exchange.o [16]
sendRadioMessage        0x08015a89    0xcc  Code  Lc  bootload-utils.o [1]
sendSpecialJoinRequest  0x0800e8c7    0xd0  Code  Lc  association.o [16]
sendUpdateDevice        0x0801356d    0x4c  Code  Lc  aps-security.o [14]
sensorCommonPrint16ByteKey
                        0x0800ab5f    0x5e  Code  Gb  common.o [1]
sensorCommonPrintKeys   0x0800accd    0x52  Code  Gb  common.o [1]
sensorCommonSetupSecurity
                        0x0800abc5    0x36  Code  Gb  common.o [1]
sensorInit              0x0800c9c7    0x12  Code  Gb  sensor.o [1]
sensorPrintKeyOptions   0x0800aaa1    0xbe  Code  Gb  common.o [1]
sequenceNumber          0x20002feb     0x1  Data  Lc  debug-jtag.o [16]
serialRegData           0x20002c8c    0x24  Data  Gb  analogue.o [16]
setChildTokenData       0x0800be4b    0xa2  Code  Lc  child.o [16]
setNonvolatileBinding   0x080171eb    0x2e  Code  Lc  binding-table.o [4]
setOrOverrideTrustCenterEui64
                        0x080168d3    0x22  Code  Lc  aps-keys.o [14]
setRadioParameters      0x0800f4c7    0x52  Code  Lc  association.o [16]
setTxStepTime           0x0800248f    0x34  Code  Lc  analogue.o [16]
shift                   0x08007021    0x10  Code  Lc  random.o [1]
shortIndirectPool       0x200029e0     0x4  Data  Lc  mac-indirect.o [16]
signingKey              0x20002698     0x1  Data  Lc  bootload-utils.o [1]
simEeErasePage          0x080058c7    0x16  Code  Lc  sim-eeprom-internal.o [8]
simEeSetDataActiveSemaphore
                        0x20002fd4     0x1  Data  Gb  token.o [1]
simulatedEepromStorage  0x0802e000  0x2000  Data  Gb  sim-eeprom.o [1]
sinkEUI                 0x20002804     0x8  Data  Gb  sensor.o [1]
sinkShortAddress        0x200027f6     0x2  Data  Gb  sensor.o [1]
sizeCache               0x0801baec    0x18  Data  Gb  sim-eeprom.o [1]
sleepTimerInterruptOccurred
                        0x20002cc4     0x1  Data  Gb  system-timer.o [8]
sleepTmrArtificalCnt    0x20002cc8     0x4  Data  Gb  system-timer.o [8]
spreadModDac1           0x2000298a     0x2  Data  Gb  analogue-mod-dac.o [16]
spreadModDac2           0x2000298c     0x2  Data  Gb  analogue-mod-dac.o [16]
sprintf                 0x08016f6d    0x34  Code  Gb  sprintf.o [6]
stackEvents             0x0800e294    0xc0  Data  Gb  zigbee-stack.o [16]
stackTokenInfo          0x0801836c    0x38  Data  Lc  token-cache.o [16]
startChannelScan        0x08010535    0x64  Code  Lc  scan.o [16]
startNetworkOperation   0x0800e48f    0x2c  Code  Lc  association.o [16]
startNextConversion     0x080021f3    0x52  Code  Gb  adc.o [1]
startPanIdScan          0x0801949b    0x44  Code  Lc  form-and-join.o [1]
startScan               0x08019781    0x22  Code  Lc  form-and-join.o [1]
statsTable              0x20002ce0     0xc  Data  Lc  debug.o [16]
strchr                  0x0801a269          Code  Gb  strchr.o [13]
strlen                  0x080170fd          Code  Gb  strlen.o [13]
submitCount             0x20002f4d     0x1  Data  Lc  retry.o [16]
swoOutput               0x0800829d    0xcc  Code  Lc  debug-jtag.o [16]
targetAddress           0x200026a4     0x8  Data  Gb  bootload-utils.o [1]
terminateScanRequest    0x08017737    0x26  Code  Lc  zdo-channel.o [16]
timeToWaitForSinkReadyMessage
                        0x200027f0     0x1  Data  Gb  sensor.o [1]
timeoutPools            0x08006791    0xde  Code  Lc  mac-indirect.o [16]
toBCD                   0x0800ce11    0x38  Code  Gb  sensor.o [1]
tokenArraySize          0x0801bb64    0x18  Data  Gb  token-def.o [1]
tokenCreators           0x0801bb04    0x30  Data  Gb  token-def.o [1]
tokenDefaults           0x0801bcfc    0x5c  Data  Gb  token-def.o [1]
tokenIsCnt              0x0801bb34    0x18  Data  Gb  token-def.o [1]
tokenSize               0x0801bb4c    0x18  Data  Gb  token-def.o [1]
tokensActive            0x20002fd3     0x1  Data  Gb  token.o [1]
transfer_command_lcd    0x08016da1    0x26  Code  Gb  lcd.o [1]
transfer_data_lcd       0x08016dc7    0x26  Code  Gb  lcd.o [1]
transmitQueue           0x200029c0     0x8  Data  Lc  mac-arbiter.o [16]
transportKeyFrameSizes  0x080140bc     0x8  Data  Lc  packet-validate.o [12]
tuneDone                0x200026bd     0x1  Data  Gb  buzzer.o [1]
tunePos                 0x200026bc     0x1  Data  Gb  buzzer.o [1]
txPower                 0x080029b8    0x28  Data  Gb  analogue.o [16]
txStepTimeSnapshot      0x200029a4     0x2  Data  Lc  phy-common.o [16]
unicastHead             0x20002fa0     0x1  Data  Lc  unicast-table.o [16]
uninitializedIsr        0x0801aeb5          Code  Gb  faults.o [1]
unsentMessageCount      0x200029bb     0x1  Data  Lc  mac-arbiter.o [16]
unsolicitedChannelReport
                        0x200029ea     0x1  Data  Lc  zdo-channel.o [16]
updateParentToken       0x0800f7af    0x62  Code  Lc  association.o [16]
useOsc32k               0x20002fd2     0x1  Data  Gb  micro-common.o [1]
useXtalAsIs             0x2000296f     0x1  Data  Lc  clocks.o [8]
vcoLastTuneValueAvailable
                        0x20002fe2     0x1  Data  Gb  analogue-vco.o [16]
vcoTuneModDacError      0x080046c1    0x24  Code  Lc  analogue-mod-dac.o [16]
verifyFib               0x08008805    0x24  Code  Lc  flash.o [8]
waitingForSinkReadyMessage
                        0x200027ef     0x1  Data  Gb  sensor.o [1]
waitingToRespond        0x200027ee     0x1  Data  Gb  sensor.o [1]
wakeupSleepTmrCnt       0x20002c88     0x4  Data  Gb  sleep.o [1]
wakeupXtalState         0x2000296e     0x1  Data  Gb  clocks.o [8]
walkDelayQueue          0x08010b29    0xd0  Code  Lc  retry.o [16]
writeMessage            0x08007ff1    0xb0  Code  Lc  packet-buffer.o [16]
writePageCounters       0x08005ed3    0x7e  Code  Lc  sim-eeprom-internal.o [8]
writeTokenBlockData     0x08005825    0x58  Code  Lc  sim-eeprom-internal.o [8]
xmodemBlock             0x20002a78    0x80  Data  Gb  bootload-utils.o [1]
xmodemReadSerialByte    0x080157e1    0x46  Code  Lc  bootload-utils.o [1]
xmodemReceiveAndForward
                        0x080158ff    0xce  Code  Lc  bootload-utils.o [1]
xmodemReceiveBlock      0x08015827    0xd4  Code  Lc  bootload-utils.o [1]
xorBufferBytesIntoBlock
                        0x08011583    0x82  Code  Lc  crypto.o [16]
xtalAboveLoThresholdUs  0x20002972     0x2  Data  Gb  clocks.o [8]
xtalUnstable            0x2000296d     0x1  Data  Gb  clocks.o [8]
zigDevApsStruct         0x20002eac     0x4  Data  Lc  zigbee-device-util.o [16]
zigDevRequestSequence   0x20002ea8     0x1  Data  Lc  zigbee-device-util.o [16]


[1] = F:\Firmware\emberZNet\firmware\EmberZNet\EM35x\app\sensor\ewb-em357\build\sensor-cortexm3-iar-em357-em3xx-dev0680-debug\Obj
[2] = command line
[3] = alarm-library.a
[4] = binding-table-library.a
[5] = cbke-stub-library.a
[6] = dl7M_tln.a
[7] = end-device-bind-stub-library.a
[8] = hal-library.a
[9] = install-code-library-stub.a
[10] = m7M_tl.a
[11] = multi-network-stub-library.a
[12] = packet-validate-library.a
[13] = rt7M_tl.a
[14] = security-library-core.a
[15] = security-library-link-keys-stub.a
[16] = zigbee-pro-stack.a
[17] = zll-stub-library.a

  102 416 bytes of readonly  code memory
    4 304 bytes of readonly  data memory
   14 032 bytes of readwrite data memory

Errors: none
Warnings: none
